
FinalProject1.elf:     file format elf32-littlenios2
FinalProject1.elf
architecture: nios2:r1, flags 0x00000112:
EXEC_P, HAS_SYMS, D_PAGED
start address 0x08000230

Program Header:
    LOAD off    0x00001000 vaddr 0x08000000 paddr 0x08000000 align 2**12
         filesz 0x00000020 memsz 0x00000020 flags r-x
    LOAD off    0x00001020 vaddr 0x08000020 paddr 0x08000020 align 2**12
         filesz 0x00015c28 memsz 0x00015c28 flags r-x
    LOAD off    0x00016c48 vaddr 0x08015c48 paddr 0x080177b4 align 2**12
         filesz 0x00001b6c memsz 0x00001b6c flags rw-
    LOAD off    0x00019320 vaddr 0x08019320 paddr 0x08019320 align 2**12
         filesz 0x00000000 memsz 0x000002e8 flags rw-

Sections:
Idx Name          Size      VMA       LMA       File off  Algn
  0 .entry        00000020  08000000  08000000  00001000  2**5
                  CONTENTS, ALLOC, LOAD, READONLY, CODE
  1 .exceptions   00000210  08000020  08000020  00001020  2**2
                  CONTENTS, ALLOC, LOAD, READONLY, CODE
  2 .text         000152d4  08000230  08000230  00001230  2**2
                  CONTENTS, ALLOC, LOAD, READONLY, CODE
  3 .rodata       00000744  08015504  08015504  00016504  2**2
                  CONTENTS, ALLOC, LOAD, READONLY, DATA
  4 .rwdata       00001b6c  08015c48  080177b4  00016c48  2**2
                  CONTENTS, ALLOC, LOAD, DATA, SMALL_DATA
  5 .bss          000002e8  08019320  08019320  00019320  2**2
                  ALLOC, SMALL_DATA
  6 .onchip_memory2_0 00000000  00000000  00000000  000187b4  2**0
                  CONTENTS
  7 .sdram        00000000  08019608  08019608  000187b4  2**0
                  CONTENTS
  8 .comment      00000023  00000000  00000000  000187b4  2**0
                  CONTENTS, READONLY
  9 .debug_aranges 00001128  00000000  00000000  000187d8  2**3
                  CONTENTS, READONLY, DEBUGGING
 10 .debug_info   000293aa  00000000  00000000  00019900  2**0
                  CONTENTS, READONLY, DEBUGGING
 11 .debug_abbrev 0000a9fe  00000000  00000000  00042caa  2**0
                  CONTENTS, READONLY, DEBUGGING
 12 .debug_line   0000d249  00000000  00000000  0004d6a8  2**0
                  CONTENTS, READONLY, DEBUGGING
 13 .debug_frame  00003064  00000000  00000000  0005a8f4  2**2
                  CONTENTS, READONLY, DEBUGGING
 14 .debug_str    00004f18  00000000  00000000  0005d958  2**0
                  CONTENTS, READONLY, DEBUGGING
 15 .debug_loc    0001910f  00000000  00000000  00062870  2**0
                  CONTENTS, READONLY, DEBUGGING
 16 .debug_alt_sim_info 00000040  00000000  00000000  0007b980  2**2
                  CONTENTS, READONLY, DEBUGGING
 17 .debug_ranges 00001c30  00000000  00000000  0007b9c0  2**3
                  CONTENTS, READONLY, DEBUGGING
 18 .thread_model 00000003  00000000  00000000  00081886  2**0
                  CONTENTS, READONLY
 19 .cpu          0000000c  00000000  00000000  00081889  2**0
                  CONTENTS, READONLY
 20 .qsys         00000001  00000000  00000000  00081895  2**0
                  CONTENTS, READONLY
 21 .simulation_enabled 00000001  00000000  00000000  00081896  2**0
                  CONTENTS, READONLY
 22 .sysid_hash   00000004  00000000  00000000  00081897  2**0
                  CONTENTS, READONLY
 23 .sysid_base   00000004  00000000  00000000  0008189b  2**0
                  CONTENTS, READONLY
 24 .sysid_time   00000004  00000000  00000000  0008189f  2**0
                  CONTENTS, READONLY
 25 .stderr_dev   0000000b  00000000  00000000  000818a3  2**0
                  CONTENTS, READONLY
 26 .stdin_dev    0000000b  00000000  00000000  000818ae  2**0
                  CONTENTS, READONLY
 27 .stdout_dev   0000000b  00000000  00000000  000818b9  2**0
                  CONTENTS, READONLY
 28 .sopc_system_name 00000011  00000000  00000000  000818c4  2**0
                  CONTENTS, READONLY
 29 .quartus_project_dir 0000002b  00000000  00000000  000818d5  2**0
                  CONTENTS, READONLY
 30 .jdi          00005800  00000000  00000000  00081900  2**0
                  CONTENTS, READONLY
 31 .sopcinfo     0008bd8a  00000000  00000000  00087100  2**0
                  CONTENTS, READONLY
SYMBOL TABLE:
08000000 l    d  .entry	00000000 .entry
08000020 l    d  .exceptions	00000000 .exceptions
08000230 l    d  .text	00000000 .text
08015504 l    d  .rodata	00000000 .rodata
08015c48 l    d  .rwdata	00000000 .rwdata
08019320 l    d  .bss	00000000 .bss
00000000 l    d  .onchip_memory2_0	00000000 .onchip_memory2_0
08019608 l    d  .sdram	00000000 .sdram
00000000 l    d  .comment	00000000 .comment
00000000 l    d  .debug_aranges	00000000 .debug_aranges
00000000 l    d  .debug_info	00000000 .debug_info
00000000 l    d  .debug_abbrev	00000000 .debug_abbrev
00000000 l    d  .debug_line	00000000 .debug_line
00000000 l    d  .debug_frame	00000000 .debug_frame
00000000 l    d  .debug_str	00000000 .debug_str
00000000 l    d  .debug_loc	00000000 .debug_loc
00000000 l    d  .debug_alt_sim_info	00000000 .debug_alt_sim_info
00000000 l    d  .debug_ranges	00000000 .debug_ranges
00000000 l    df *ABS*	00000000 ../FinalProject1_bsp//obj/HAL/src/crt0.o
08000268 l       .text	00000000 alt_after_alt_main
00000000 l    df *ABS*	00000000 alt_irq_handler.c
00000000 l    df *ABS*	00000000 alt_instruction_exception_entry.c
00000000 l    df *ABS*	00000000 main.c
0801775c l     O .rwdata	00000001 addr
00000000 l    df *ABS*	00000000 sgtl5000.c
00000000 l    df *ABS*	00000000 sgtl5000_test.c
00000000 l    df *ABS*	00000000 HID.c
00000000 l    df *ABS*	00000000 MAX3421E.c
00000000 l    df *ABS*	00000000 transfer.c
08019330 l     O .bss	00000004 usb_delay.2608
08019334 l     O .bss	00000001 tmp_addr.2609
00000000 l    df *ABS*	00000000 libgcc2.c
00000000 l    df *ABS*	00000000 lib2-divmod.c
00000000 l    df *ABS*	00000000 lib2-mul.c
00000000 l    df *ABS*	00000000 gesf2.c
00000000 l    df *ABS*	00000000 mulsf3.c
00000000 l    df *ABS*	00000000 subsf3.c
00000000 l    df *ABS*	00000000 fixsfsi.c
00000000 l    df *ABS*	00000000 floatunsisf.c
00000000 l    df *ABS*	00000000 libgcc2.c
00000000 l    df *ABS*	00000000 libgcc2.c
00000000 l    df *ABS*	00000000 printf.c
00000000 l    df *ABS*	00000000 putchar.c
00000000 l    df *ABS*	00000000 puts.c
00000000 l    df *ABS*	00000000 strlen.c
00000000 l    df *ABS*	00000000 vfprintf.c
08015a62 l     O .rodata	00000010 zeroes.4404
080061b8 l     F .text	000000bc __sbprintf
08015a72 l     O .rodata	00000010 blanks.4403
00000000 l    df *ABS*	00000000 wsetup.c
00000000 l    df *ABS*	00000000 dtoa.c
080063c8 l     F .text	00000228 quorem
00000000 l    df *ABS*	00000000 fflush.c
00000000 l    df *ABS*	00000000 findfp.c
08007f20 l     F .text	00000008 __fp_unlock
08007f34 l     F .text	0000019c __sinit.part.1
080080d0 l     F .text	00000008 __fp_lock
00000000 l    df *ABS*	00000000 mallocr.c
00000000 l    df *ABS*	00000000 fvwrite.c
00000000 l    df *ABS*	00000000 fwalk.c
00000000 l    df *ABS*	00000000 impure.c
08015c78 l     O .rwdata	00000424 impure_data
00000000 l    df *ABS*	00000000 locale.c
080160bc l     O .rwdata	00000020 lc_ctype_charset
0801609c l     O .rwdata	00000020 lc_message_charset
080160dc l     O .rwdata	00000038 lconv
00000000 l    df *ABS*	00000000 makebuf.c
00000000 l    df *ABS*	00000000 mallocr.c
00000000 l    df *ABS*	00000000 memchr.c
00000000 l    df *ABS*	00000000 memcpy.c
00000000 l    df *ABS*	00000000 memmove.c
00000000 l    df *ABS*	00000000 memset.c
00000000 l    df *ABS*	00000000 mprec.c
08015aa4 l     O .rodata	0000000c p05.2768
00000000 l    df *ABS*	00000000 putc.c
00000000 l    df *ABS*	00000000 mallocr.c
00000000 l    df *ABS*	00000000 s_fpclassify.c
00000000 l    df *ABS*	00000000 sbrkr.c
00000000 l    df *ABS*	00000000 stdio.c
00000000 l    df *ABS*	00000000 strcmp.c
00000000 l    df *ABS*	00000000 vfprintf.c
0800b70c l     F .text	000000fc __sprint_r.part.0
08015bc8 l     O .rodata	00000010 zeroes.4349
0800cd48 l     F .text	000000bc __sbprintf
08015bd8 l     O .rodata	00000010 blanks.4348
00000000 l    df *ABS*	00000000 wbuf.c
00000000 l    df *ABS*	00000000 writer.c
00000000 l    df *ABS*	00000000 closer.c
00000000 l    df *ABS*	00000000 mallocr.c
00000000 l    df *ABS*	00000000 fclose.c
00000000 l    df *ABS*	00000000 fputwc.c
00000000 l    df *ABS*	00000000 fstatr.c
00000000 l    df *ABS*	00000000 int_errno.c
00000000 l    df *ABS*	00000000 isattyr.c
00000000 l    df *ABS*	00000000 lseekr.c
00000000 l    df *ABS*	00000000 readr.c
00000000 l    df *ABS*	00000000 wcrtomb.c
00000000 l    df *ABS*	00000000 wctomb_r.c
00000000 l    df *ABS*	00000000 libgcc2.c
00000000 l    df *ABS*	00000000 libgcc2.c
00000000 l    df *ABS*	00000000 adddf3.c
00000000 l    df *ABS*	00000000 divdf3.c
00000000 l    df *ABS*	00000000 eqdf2.c
00000000 l    df *ABS*	00000000 gedf2.c
00000000 l    df *ABS*	00000000 ledf2.c
00000000 l    df *ABS*	00000000 muldf3.c
00000000 l    df *ABS*	00000000 subdf3.c
00000000 l    df *ABS*	00000000 fixdfsi.c
00000000 l    df *ABS*	00000000 floatsidf.c
00000000 l    df *ABS*	00000000 floatunsidf.c
00000000 l    df *ABS*	00000000 alt_close.c
08010b50 l     F .text	0000003c alt_get_errno
00000000 l    df *ABS*	00000000 alt_dev.c
08010c64 l     F .text	0000002c alt_dev_null_write
00000000 l    df *ABS*	00000000 alt_errno.c
00000000 l    df *ABS*	00000000 alt_fstat.c
08010c90 l     F .text	0000003c alt_get_errno
00000000 l    df *ABS*	00000000 alt_isatty.c
08010d84 l     F .text	0000003c alt_get_errno
00000000 l    df *ABS*	00000000 alt_load.c
08010e6c l     F .text	00000068 alt_load_section
00000000 l    df *ABS*	00000000 alt_lseek.c
08010f58 l     F .text	0000003c alt_get_errno
00000000 l    df *ABS*	00000000 alt_main.c
00000000 l    df *ABS*	00000000 alt_malloc_lock.c
00000000 l    df *ABS*	00000000 alt_read.c
08011134 l     F .text	0000003c alt_get_errno
00000000 l    df *ABS*	00000000 alt_release_fd.c
00000000 l    df *ABS*	00000000 alt_sbrk.c
0801779c l     O .rwdata	00000004 heap_end
00000000 l    df *ABS*	00000000 alt_tick.c
00000000 l    df *ABS*	00000000 alt_usleep.c
00000000 l    df *ABS*	00000000 alt_write.c
0801157c l     F .text	0000003c alt_get_errno
00000000 l    df *ABS*	00000000 alt_sys_init.c
080116b8 l     F .text	00000034 alt_dev_reg
080166c4 l     O .rwdata	00000038 i2c
080166fc l     O .rwdata	00001060 jtag_uart_0
00000000 l    df *ABS*	00000000 altera_avalon_i2c.c
08011794 l     F .text	00000110 optional_irq_callback
080118f4 l     F .text	0000009c alt_avalon_i2c_irq
00000000 l    df *ABS*	00000000 altera_avalon_jtag_uart_fd.c
00000000 l    df *ABS*	00000000 altera_avalon_jtag_uart_init.c
080135d0 l     F .text	0000020c altera_avalon_jtag_uart_irq
080137dc l     F .text	000000a0 altera_avalon_jtag_uart_timeout
00000000 l    df *ABS*	00000000 altera_avalon_jtag_uart_ioctl.c
00000000 l    df *ABS*	00000000 altera_avalon_jtag_uart_read.c
00000000 l    df *ABS*	00000000 altera_avalon_jtag_uart_write.c
00000000 l    df *ABS*	00000000 altera_avalon_spi.c
00000000 l    df *ABS*	00000000 altera_avalon_timer_sc.c
08014010 l     F .text	00000078 alt_avalon_timer_sc_irq
00000000 l    df *ABS*	00000000 alt_alarm_start.c
00000000 l    df *ABS*	00000000 alt_busy_sleep.c
00000000 l    df *ABS*	00000000 alt_dcache_flush_all.c
00000000 l    df *ABS*	00000000 alt_dev_llist_insert.c
080143a8 l     F .text	0000003c alt_get_errno
00000000 l    df *ABS*	00000000 alt_do_ctors.c
00000000 l    df *ABS*	00000000 alt_do_dtors.c
00000000 l    df *ABS*	00000000 alt_find_dev.c
00000000 l    df *ABS*	00000000 alt_icache_flush_all.c
00000000 l    df *ABS*	00000000 alt_iic.c
00000000 l    df *ABS*	00000000 alt_iic_isr_register.c
00000000 l    df *ABS*	00000000 alt_io_redirect.c
08014898 l     F .text	000000e4 alt_open_fd
00000000 l    df *ABS*	00000000 alt_irq_vars.c
00000000 l    df *ABS*	00000000 alt_open.c
080149f8 l     F .text	0000003c alt_get_errno
08014a34 l     F .text	000000ec alt_file_locked
00000000 l    df *ABS*	00000000 alt_printf.c
00000000 l    df *ABS*	00000000 alt_putchar.c
00000000 l    df *ABS*	00000000 altera_nios2_gen2_irq.c
00000000 l    df *ABS*	00000000 alt_find_file.c
00000000 l    df *ABS*	00000000 alt_get_fd.c
00000000 l    df *ABS*	00000000 atexit.c
00000000 l    df *ABS*	00000000 exit.c
00000000 l    df *ABS*	00000000 memcmp.c
00000000 l    df *ABS*	00000000 __atexit.c
00000000 l    df *ABS*	00000000 __call_atexit.c
00000000 l    df *ABS*	00000000 alt_exit.c
0801936c g     O .bss	00000004 alt_instruction_exception_handler
08003d3c g     F .text	00000018 putchar
0800abe8 g     F .text	00000074 _mprec_log10
0800acd4 g     F .text	0000008c __any_on
0800d454 g     F .text	00000054 _isatty_r
08015ab0 g     O .rodata	00000028 __mprec_tinytens
08011070 g     F .text	0000007c alt_main
08017760 g     O .rwdata	00000008 ctrl_xfers
08003d54 g     F .text	000000c0 _puts_r
08019508 g     O .bss	00000100 alt_irq
0800d4a8 g     F .text	00000060 _lseek_r
080026ac g     F .text	00000644 USB_Task
080177b4 g       *ABS*	00000000 __flash_rwdata_start
0800f58c g     F .text	00000088 .hidden __eqdf2
08019608 g       *ABS*	00000000 __alt_heap_start
08003cf8 g     F .text	0000003c printf
0800d568 g     F .text	0000009c _wcrtomb_r
080017e0 g     F .text	00000088 kbdPoll
0800b5cc g     F .text	0000005c __sseek
08008280 g     F .text	00000010 __sinit
0800ce04 g     F .text	00000140 __swbuf_r
08008d54 g     F .text	0000007c _setlocale_r
080080d8 g     F .text	00000078 __sfmoreglue
08011fec g     F .text	000000a8 alt_avalon_i2c_rx_read
08011110 g     F .text	00000024 __malloc_unlock
0800026c g     F .text	000001f0 GetDriverandReport
08013204 g     F .text	00000044 alt_avalon_i2c_enabled_ints_get
08011d70 g     F .text	00000094 alt_avalon_i2c_master_config_speed_get
08009a24 g     F .text	0000015c memmove
08008268 g     F .text	00000018 _cleanup
08012a54 g     F .text	0000020c alt_avalon_i2c_master_transmit_using_interrupts
08009ca8 g     F .text	000000a8 _Balloc
08003b04 g     F .text	00000070 .hidden __fixsfsi
08001934 g     F .text	00000088 MAXreg_wr
08015c48 g     O .rwdata	00000030 ClientDriverTable
0800f614 g     F .text	000000dc .hidden __gtdf2
08014ee4 g     F .text	00000024 altera_nios2_gen2_irq_init
08002cf0 g     F .text	0000002c MSDProbe
08000000 g     F .entry	0000000c __reset
080021ac g     F .text	000000e8 XferCtrlData
08000020 g       *ABS*	00000000 __flash_exceptions_start
08019370 g     O .bss	00000010 hid_ep
0800d3f8 g     F .text	0000005c _fstat_r
08019350 g     O .bss	00000004 errno
0800b548 g     F .text	00000008 __seofread
08019358 g     O .bss	00000004 alt_argv
0801f75c g       *ABS*	00000000 _gp
0801154c g     F .text	00000030 usleep
08013248 g     F .text	0000004c alt_avalon_i2c_rx_fifo_threshold_get
08001b20 g     F .text	00000074 MAXreg_rd
08003620 g     F .text	000004e4 .hidden __subsf3
08011f00 g     F .text	00000044 alt_avalon_i2c_is_busy
08016544 g     O .rwdata	00000180 alt_fd_list
08001718 g     F .text	00000040 HID_init
08003d34 g     F .text	00000008 _putchar_r
08011ca4 g     F .text	000000cc alt_avalon_i2c_master_config_set
08014548 g     F .text	00000090 alt_find_dev
080098dc g     F .text	00000148 memcpy
08007f28 g     F .text	0000000c _cleanup_r
080109cc g     F .text	000000dc .hidden __floatsidf
0801497c g     F .text	0000007c alt_io_redirect
0800f6f0 g     F .text	000000f4 .hidden __ltdf2
08015504 g       *ABS*	00000000 __DTOR_END__
08012894 g     F .text	000001c0 alt_avalon_i2c_master_transmit
08003e14 g     F .text	00000014 puts
080150d4 g     F .text	0000009c alt_exception_cause_generated_bad_addr
0800b42c g     F .text	00000074 __fpclassifyd
0800ab44 g     F .text	000000a4 __ratio
0800cd2c g     F .text	0000001c __vfiprintf_internal
080139d4 g     F .text	0000021c altera_avalon_jtag_uart_read
08003cc8 g     F .text	00000030 _printf_r
00000000 g       *ABS*	00000000 __alt_mem_onchip_memory2_0
08003050 g     F .text	00000064 .hidden __udivsi3
08010dc0 g     F .text	000000ac isatty
08015b00 g     O .rodata	000000c8 __mprec_tens
08008dd0 g     F .text	0000000c __locale_charset
08011b10 g     F .text	00000098 alt_avalon_i2c_enable
0801934c g     O .bss	00000004 __malloc_top_pad
08013138 g     F .text	00000068 alt_avalon_i2c_int_disable
08017768 g     O .rwdata	00000001 usb_task_state
08017774 g     O .rwdata	00000004 __mb_cur_max
08008e00 g     F .text	0000000c _localeconv_r
0800a0dc g     F .text	0000003c __i2b
08008704 g     F .text	000004c8 __sfvwrite_r
0800b4a0 g     F .text	00000054 _sbrk_r
0800d508 g     F .text	00000060 _read_r
08001e68 g     F .text	00000094 MAX3421E_init
0800045c g     F .text	00000034 setKeycode
08000ad8 g     F .text	000000b4 SGTL5000_Reg_Rd
08017794 g     O .rwdata	00000004 alt_max_fd
0800d0ec g     F .text	000000f0 _fclose_r
08007ef0 g     F .text	00000030 fflush
08019348 g     O .bss	00000004 __malloc_max_sbrked_mem
08012c60 g     F .text	00000210 alt_avalon_i2c_master_receive
0800e310 g     F .text	000008ac .hidden __adddf3
0800a8ec g     F .text	0000010c __b2d
0800dd4c g     F .text	000005c4 .hidden __umoddi3
08010f94 g     F .text	000000dc lseek
080131a0 g     F .text	00000064 alt_avalon_i2c_int_enable
0801776c g     O .rwdata	00000004 _global_impure_ptr
0800aec8 g     F .text	00000564 _realloc_r
08019608 g       *ABS*	00000000 __bss_end
080147a8 g     F .text	000000f0 alt_iic_isr_register
08011444 g     F .text	00000108 alt_tick
0800d750 g     F .text	000005fc .hidden __udivdi3
08013060 g     F .text	00000058 alt_avalon_i2c_int_status_get
0800d354 g     F .text	00000024 _fputwc_r
08015ad8 g     O .rodata	00000028 __mprec_bigtens
08009ec0 g     F .text	00000104 __s2b
08010aa8 g     F .text	000000a8 .hidden __floatunsidf
0800a62c g     F .text	00000060 __mcmp
080082a0 g     F .text	00000018 __fp_lock_all
0801475c g     F .text	0000004c alt_ic_irq_enabled
080113a8 g     F .text	0000009c alt_alarm_stop
08011990 g     F .text	00000054 alt_avalon_i2c_register_callback
08019368 g     O .bss	00000004 alt_irq_active
080119e4 g     F .text	000000ec alt_avalon_i2c_init
08002db8 g     F .text	0000002c DummyProbe
080000fc g     F .exceptions	000000d4 alt_irq_handler
0801651c g     O .rwdata	00000028 alt_dev_null
08001758 g     F .text	00000088 mousePoll
08001cbc g     F .text	00000024 Vbus_power
08014388 g     F .text	00000020 alt_dcache_flush_all
08009fc4 g     F .text	00000068 __hi0bits
0801094c g     F .text	00000080 .hidden __fixdfsi
080177b4 g       *ABS*	00000000 __ram_rwdata_end
0801778c g     O .rwdata	00000008 alt_dev_list
080115b8 g     F .text	00000100 write
0800ad60 g     F .text	000000a0 _putc_r
08012320 g     F .text	0000004c alt_avalon_i2c_check_arblost
08003134 g     F .text	000000bc .hidden __gtsf2
080130fc g     F .text	0000003c alt_avalon_i2c_int_clear
08015c48 g       *ABS*	00000000 __ram_rodata_end
08019335 g     O .bss	00000001 usb_error
08010ccc g     F .text	000000b8 fstat
0800f6f0 g     F .text	000000f4 .hidden __ledf2
080177a8 g     O .rwdata	00000008 alt_avalon_i2c_list
0800a3a4 g     F .text	00000140 __pow5mult
0800b820 g     F .text	0000150c ___vfiprintf_internal_r
08019340 g     O .bss	00000004 __nlocale_changed
080030b4 g     F .text	00000058 .hidden __umodsi3
08019608 g       *ABS*	00000000 end
08013510 g     F .text	000000c0 altera_avalon_jtag_uart_init
080001d0 g     F .exceptions	00000060 alt_instruction_exception_entry
08011ad0 g     F .text	00000040 alt_avalon_i2c_open
08002308 g     F .text	0000017c XferDispatchPkt
08015504 g       *ABS*	00000000 __CTOR_LIST__
0c000000 g       *ABS*	00000000 __alt_stack_pointer
080124a8 g     F .text	000000e8 alt_avalon_i2c_master_tx
08014088 g     F .text	0000007c alt_avalon_timer_sc_init
08003c64 g     F .text	00000064 .hidden __clzsi2
08013bf0 g     F .text	00000224 altera_avalon_jtag_uart_write
08008290 g     F .text	00000004 __sfp_lock_acquire
080097f8 g     F .text	000000e4 memchr
08003ec0 g     F .text	000022dc ___vfprintf_internal_r
0800202c g     F .text	00000034 MaxGpxHandler
080083f4 g     F .text	00000310 _free_r
08014c7c g     F .text	0000022c alt_printf
08008ddc g     F .text	00000010 __locale_mb_cur_max
08015350 g     F .text	00000180 __call_exitprocs
0801933c g     O .bss	00000004 __mlocale_changed
080118a4 g     F .text	00000050 alt_avalon_i2c_register_optional_irq_handler
08017778 g     O .rwdata	00000004 __malloc_sbrk_base
08000230 g     F .text	0000003c _start
08019360 g     O .bss	00000004 _alt_tick_rate
08001b94 g     F .text	00000088 MAXbytes_rd
08012e70 g     F .text	000001f0 alt_avalon_i2c_master_receive_using_interrupts
08013294 g     F .text	00000064 alt_avalon_i2c_rx_fifo_threshold_set
0800a4e4 g     F .text	00000148 __lshift
08013e14 g     F .text	000001fc alt_avalon_spi_command
08019364 g     O .bss	00000004 _alt_nticks
08011170 g     F .text	00000104 read
08011724 g     F .text	00000070 alt_sys_init
080194c0 g     O .bss	00000048 devtable
08015238 g     F .text	00000118 __register_exitproc
08001310 g     F .text	00000408 HIDKProbe
08019380 g     O .bss	00000018 msd_ep
080126cc g     F .text	000001c8 alt_avalon_i2c_master_tx_rx
0800a118 g     F .text	0000028c __multiply
0801387c g     F .text	00000068 altera_avalon_jtag_uart_close
08002614 g     F .text	00000098 USB_init
0800310c g     F .text	00000028 .hidden __mulsi3
080193c0 g     O .bss	00000100 bigbuf
08015c48 g       *ABS*	00000000 __ram_rwdata_start
08015504 g       *ABS*	00000000 __ram_rodata_start
08019398 g     O .bss	00000028 __malloc_current_mallinfo
0801932c g     O .bss	00000001 last_usb_task_state
0800a9f8 g     F .text	0000014c __d2b
08019324 g     O .bss	00000008 dev0ep
08000c70 g     F .text	00000048 clearLED
080133ac g     F .text	00000060 altera_avalon_jtag_uart_read_fd
08015010 g     F .text	000000c4 alt_get_fd
08014230 g     F .text	00000158 alt_busy_sleep
08002d1c g     F .text	00000038 MSDEventHandler
0800cfbc g     F .text	00000054 _close_r
080151bc g     F .text	0000007c memcmp
08011f44 g     F .text	000000a8 alt_avalon_i2c_rx_read_available
0801346c g     F .text	00000050 altera_avalon_jtag_uart_close_fd
08019608 g       *ABS*	00000000 __alt_stack_base
080134bc g     F .text	00000054 altera_avalon_jtag_uart_ioctl_fd
08006274 g     F .text	00000154 __swsetup_r
0800ebbc g     F .text	000009d0 .hidden __divdf3
08008150 g     F .text	00000118 __sfp
0800ac5c g     F .text	00000078 __copybits
08016114 g     O .rwdata	00000408 __malloc_av_
0800829c g     F .text	00000004 __sinit_lock_release
08002d80 g     F .text	00000038 CDCEventHandler
0800f7e4 g     F .text	0000086c .hidden __muldf3
08002de4 g     F .text	00000038 DummyEventHandler
0800b4f4 g     F .text	00000054 __sread
08014f08 g     F .text	00000108 alt_find_file
080143e4 g     F .text	000000a4 alt_dev_llist_insert
080110ec g     F .text	00000024 __malloc_lock
080112f8 g     F .text	000000b0 sbrk
0801236c g     F .text	0000013c alt_avalon_i2c_interrupt_transaction_status
080122d4 g     F .text	0000004c alt_avalon_i2c_check_nack
08007e94 g     F .text	0000005c _fflush_r
0800d010 g     F .text	000000dc _calloc_r
08019320 g       *ABS*	00000000 __bss_start
08001ce0 g     F .text	00000188 MAX_busprobe
08019320 g     O .bss	00000002 hid_device
08009b80 g     F .text	00000128 memset
08000490 g     F .text	00000648 main
08001efc g     F .text	00000064 MAX3421E_Task
080122a0 g     F .text	00000034 alt_avalon_i2c_master_target_set
0801935c g     O .bss	00000004 alt_envp
08019344 g     O .bss	00000004 __malloc_max_total_mem
0801340c g     F .text	00000060 altera_avalon_jtag_uart_write_fd
0800cf44 g     F .text	00000018 __swbuf
08002e74 g     F .text	00000084 ConvUTF8ToStr
080130b8 g     F .text	00000044 alt_avalon_i2c_int_raw_status_get
0800b628 g     F .text	00000008 __sclose
0c000000 g       *ABS*	00000000 __alt_heap_limit
0800d1dc g     F .text	00000014 fclose
080065f0 g     F .text	00001688 _dtoa_r
08008fec g     F .text	0000080c _malloc_r
0800d6c4 g     F .text	00000030 __ascii_wctomb
08017798 g     O .rwdata	00000004 alt_errno
08008bcc g     F .text	000000c4 _fwalk
0800ae00 g     F .text	000000c8 putc
08002f58 g     F .text	00000084 .hidden __divsi3
08002484 g     F .text	00000190 XferInTransfer
08000dd0 g     F .text	00000138 printSignedHex1
080082d0 g     F .text	00000124 _malloc_trim_r
08015504 g       *ABS*	00000000 __CTOR_END__
080031f0 g     F .text	00000430 .hidden __mulsf3
08002e3c g     F .text	00000038 GetDevtable
0800b630 g     F .text	000000dc strcmp
08015504 g       *ABS*	00000000 __flash_rodata_start
08015504 g       *ABS*	00000000 __DTOR_LIST__
08002294 g     F .text	00000074 XferCtrlND
08000b8c g     F .text	000000a0 SGTL5000_Reg_Wr
0800f58c g     F .text	00000088 .hidden __nedf2
08001c1c g     F .text	000000a0 MAX3421E_reset
080116ec g     F .text	00000038 alt_irq_init
08011274 g     F .text	00000084 alt_release_fd
0801591c g     O .rodata	00000100 .hidden __clz_tab
08019338 g     O .bss	00000004 _PathLocale
08015170 g     F .text	00000014 atexit
08003134 g     F .text	000000bc .hidden __gesf2
0800cf5c g     F .text	00000060 _write_r
08008e0c g     F .text	00000018 setlocale
08017770 g     O .rwdata	00000004 _impure_ptr
08019354 g     O .bss	00000004 alt_argc
08007c78 g     F .text	0000021c __sflush_r
080144e8 g     F .text	00000060 _do_dtors
08008df8 g     F .text	00000008 __locale_cjk_lang
08012268 g     F .text	00000038 alt_avalon_i2c_master_target_get
08012178 g     F .text	000000f0 alt_avalon_i2c_send_address
080019bc g     F .text	00000164 MAXbytes_wr
08000020 g       .exceptions	00000000 alt_irq_entry
0800a888 g     F .text	00000064 __ulp
080082b8 g     F .text	00000018 __fp_unlock_all
08017784 g     O .rwdata	00000008 alt_fs_list
08002d54 g     F .text	0000002c CDCProbe
08000020 g       *ABS*	00000000 __ram_exceptions_start
08008e24 g     F .text	0000000c localeconv
08000c2c g     F .text	00000044 setLED
08002e1c g     F .text	00000020 GetUsbTaskState
08013344 g     F .text	00000068 alt_avalon_i2c_tfr_cmd_fifo_threshold_set
080145f8 g     F .text	00000050 alt_ic_isr_register
08011ba8 g     F .text	0000004c alt_avalon_i2c_disable
08015540 g     O .rodata	00000010 devclasses
080177b4 g       *ABS*	00000000 _edata
080018a0 g     F .text	00000038 HIDKEventHandler
08019608 g       *ABS*	00000000 _end
08001f60 g     F .text	000000cc MaxIntHandler
0800d1f0 g     F .text	00000164 __fputwc
08000230 g       *ABS*	00000000 __ram_exceptions_end
080138e4 g     F .text	000000f0 altera_avalon_jtag_uart_ioctl
08011bf4 g     F .text	000000b0 alt_avalon_i2c_master_config_get
080018d8 g     F .text	00000034 SPI_init
080146d0 g     F .text	0000008c alt_ic_irq_disable
0800b550 g     F .text	0000007c __swrite
0801777c g     O .rwdata	00000004 __malloc_trim_threshold
08008dec g     F .text	0000000c __locale_msgcharset
08015184 g     F .text	00000038 exit
08008c90 g     F .text	000000c4 _fwalk_reent
08003b74 g     F .text	000000f0 .hidden __floatunsisf
0800a68c g     F .text	000001fc __mdiff
08002fdc g     F .text	00000074 .hidden __modsi3
0c000000 g       *ABS*	00000000 __alt_data_end
08000020 g     F .exceptions	00000000 alt_exception
08008294 g     F .text	00000004 __sfp_lock_release
08000000 g       *ABS*	00000000 __alt_mem_sdram
08011e04 g     F .text	000000fc alt_avalon_i2c_master_config_speed_set
08012094 g     F .text	000000e4 alt_avalon_i2c_cmd_write
08002ef8 g     F .text	00000060 .hidden __fixunssfsi
08001868 g     F .text	00000038 HIDMEventHandler
080154d0 g     F .text	00000034 _exit
08014104 g     F .text	0000012c alt_alarm_start
08000cb8 g     F .text	00000118 printSignedHex0
08008e30 g     F .text	000001bc __smakebuf_r
08003e28 g     F .text	00000098 strlen
08014b20 g     F .text	0000015c open
0800f614 g     F .text	000000dc .hidden __gedf2
08014ea8 g     F .text	0000003c alt_putchar
08017780 g     O .rwdata	00000004 __wctomb
0800b808 g     F .text	00000018 __sprint_r
080145d8 g     F .text	00000020 alt_icache_flush_all
080177b0 g     O .rwdata	00000004 alt_priority_mask
08014648 g     F .text	00000088 alt_ic_irq_enable
0800619c g     F .text	0000001c __vfprintf_internal
08000f08 g     F .text	00000408 HIDMProbe
0800d6f4 g     F .text	0000005c _wctomb_r
0800190c g     F .text	00000028 SPI_wr
08010050 g     F .text	000008fc .hidden __subdf3
0800a02c g     F .text	000000b0 __lo0bits
080177a0 g     O .rwdata	00000008 alt_alarm_list
08014488 g     F .text	00000060 _do_ctors
0800d604 g     F .text	000000c0 wcrtomb
08010b8c g     F .text	000000d8 close
080132f8 g     F .text	0000004c alt_avalon_i2c_tfr_cmd_fifo_threshold_get
08010ed4 g     F .text	00000084 alt_load
08012590 g     F .text	0000013c alt_avalon_i2c_master_rx
0800d378 g     F .text	00000080 fputwc
08008298 g     F .text	00000004 __sinit_lock_acquire
08002060 g     F .text	0000014c XferCtrlReq
08009d78 g     F .text	00000148 __multadd
08009d50 g     F .text	00000028 _Bfree



Disassembly of section .entry:

08000000 <__reset>:
 * Jump to the _start entry point in the .text section if reset code
 * is allowed or if optimizing for RTL simulation.
 */
#if defined(ALT_ALLOW_CODE_AT_RESET) || defined(ALT_SIM_OPTIMIZE)
    /* Jump to the _start entry point in the .text section. */
    movhi r1, %hi(_start)
 8000000:	00420034 	movhi	at,2048
    ori r1, r1, %lo(_start)
 8000004:	08408c14 	ori	at,at,560
    jmp r1
 8000008:	0800683a 	jmp	at
	...

Disassembly of section .exceptions:

08000020 <alt_exception>:

#else /* ALT_EXCEPTION_STACK disabled */
        /* 
         * Reserve space on normal stack for registers about to be pushed.
         */
        addi  sp, sp, -76
 8000020:	deffed04 	addi	sp,sp,-76
         * documentation for details).
         *
         * Leave a gap in the stack frame at 4(sp) for the muldiv handler to
         * store zero into.
         */
        stw   ra,  0(sp)
 8000024:	dfc00015 	stw	ra,0(sp)
        stw   r1,   8(sp)
 8000028:	d8400215 	stw	at,8(sp)
        stw   r2,  12(sp)
 800002c:	d8800315 	stw	r2,12(sp)
        stw   r3,  16(sp)
 8000030:	d8c00415 	stw	r3,16(sp)
        stw   r4,  20(sp)
 8000034:	d9000515 	stw	r4,20(sp)
        stw   r5,  24(sp)
 8000038:	d9400615 	stw	r5,24(sp)
        stw   r6,  28(sp)
 800003c:	d9800715 	stw	r6,28(sp)
        stw   r7,  32(sp)
 8000040:	d9c00815 	stw	r7,32(sp)
        rdctl r5, estatus   /* Read early to avoid usage stall */
 8000044:	000b307a 	rdctl	r5,estatus
        stw   r8,  36(sp)
 8000048:	da000915 	stw	r8,36(sp)
        stw   r9,  40(sp)
 800004c:	da400a15 	stw	r9,40(sp)
        stw   r10, 44(sp)
 8000050:	da800b15 	stw	r10,44(sp)
        stw   r11, 48(sp)
 8000054:	dac00c15 	stw	r11,48(sp)
        stw   r12, 52(sp)
 8000058:	db000d15 	stw	r12,52(sp)
        stw   r13, 56(sp)
 800005c:	db400e15 	stw	r13,56(sp)
        stw   r14, 60(sp)
 8000060:	db800f15 	stw	r14,60(sp)
        stw   r15, 64(sp)
 8000064:	dbc01015 	stw	r15,64(sp)
        /*
         * ea-4 contains the address of the instruction being executed
         * when the exception occured. For interrupt exceptions, we will
         * will be re-issue the isntruction. Store it in 72(sp)
         */
        stw   r5,  68(sp)  /* estatus */
 8000068:	d9401115 	stw	r5,68(sp)
        addi  r15, ea, -4  /* instruction that caused exception */
 800006c:	ebffff04 	addi	r15,ea,-4
        stw   r15,  72(sp)
 8000070:	dbc01215 	stw	r15,72(sp)
#else
        /*
         * Test to see if the exception was a software exception or caused 
         * by an external interrupt, and vector accordingly.
         */
        rdctl r4, ipending
 8000074:	0009313a 	rdctl	r4,ipending
        andi  r2, r5, 1
 8000078:	2880004c 	andi	r2,r5,1
        beq   r2, zero, .Lnot_irq
 800007c:	10000326 	beq	r2,zero,800008c <alt_exception+0x6c>
        beq   r4, zero, .Lnot_irq
 8000080:	20000226 	beq	r4,zero,800008c <alt_exception+0x6c>
        /*
         * Now that all necessary registers have been preserved, call 
         * alt_irq_handler() to process the interrupts.
         */

        call alt_irq_handler
 8000084:	80000fc0 	call	80000fc <alt_irq_handler>

        .section .exceptions.irqreturn, "xa"

        br    .Lexception_exit
 8000088:	00000706 	br	80000a8 <alt_exception+0x88>
         * upon completion, so we write ea (address of instruction *after*
         * the one where the exception occured) into 72(sp). The actual
         * instruction that caused the exception is written in r2, which these
         * handlers will utilize.
         */
        stw ea, 72(sp) /* EA is PC+4 so will skip over instruction causing exception */
 800008c:	df401215 	stw	ea,72(sp)
.Lunknown_16bit:
        addi.n r4, r4, 2 /* Need PC+2 to skip over instruction causing exception */
        stw r4, 72(sp)

#else /* CDX is not Enabled and all instructions are 32bits */
        ldw r2, -4(ea) /* Instruction value that caused exception */
 8000090:	e8bfff17 	ldw	r2,-4(ea)
         * debugger is present) or go into an infinite loop since the
         * handling behavior is undefined; in that case we will not return here.
         */

        /* Load exception-causing address as first argument (r4) */
        addi   r4, ea, -4
 8000094:	e93fff04 	addi	r4,ea,-4

        /* Call the instruction-exception entry */
        call   alt_instruction_exception_entry
 8000098:	80001d00 	call	80001d0 <alt_instruction_exception_entry>
         * instruction
         *
         * Return code was 0: Skip. The instruction after the exception is
         * already stored in 72(sp).
         */
        bne   r2, r0, .Lexception_exit
 800009c:	1000021e 	bne	r2,zero,80000a8 <alt_exception+0x88>

        /*
         * Otherwise, modify 72(sp) to re-issue the instruction that caused the
         * exception.
         */
        addi  r15, ea, -4  /* instruction that caused exception */
 80000a0:	ebffff04 	addi	r15,ea,-4
        stw   r15,  72(sp)
 80000a4:	dbc01215 	stw	r15,72(sp)
        /* 
         * Restore the saved registers, so that all general purpose registers 
         * have been restored to their state at the time the interrupt occured.
         */

        ldw   r5,  68(sp)
 80000a8:	d9401117 	ldw	r5,68(sp)
        ldw   ea,  72(sp)  /* This becomes the PC once eret is executed */
 80000ac:	df401217 	ldw	ea,72(sp)
        ldw   ra,   0(sp)
 80000b0:	dfc00017 	ldw	ra,0(sp)

        wrctl estatus, r5
 80000b4:	2801707a 	wrctl	estatus,r5

        ldw   r1,   8(sp)
 80000b8:	d8400217 	ldw	at,8(sp)
        ldw   r2,  12(sp)
 80000bc:	d8800317 	ldw	r2,12(sp)
        ldw   r3,  16(sp)
 80000c0:	d8c00417 	ldw	r3,16(sp)
        ldw   r4,  20(sp)
 80000c4:	d9000517 	ldw	r4,20(sp)
        ldw   r5,  24(sp)
 80000c8:	d9400617 	ldw	r5,24(sp)
        ldw   r6,  28(sp)
 80000cc:	d9800717 	ldw	r6,28(sp)
        ldw   r7,  32(sp)
 80000d0:	d9c00817 	ldw	r7,32(sp)

#if defined(ALT_EXCEPTION_STACK) && defined(ALT_STACK_CHECK)
        ldw   et, %gprel(alt_exception_old_stack_limit)(gp)
#endif

        ldw   r8,  36(sp)
 80000d4:	da000917 	ldw	r8,36(sp)
        ldw   r9,  40(sp)
 80000d8:	da400a17 	ldw	r9,40(sp)
        ldw   r10, 44(sp)
 80000dc:	da800b17 	ldw	r10,44(sp)
        ldw   r11, 48(sp)
 80000e0:	dac00c17 	ldw	r11,48(sp)
        ldw   r12, 52(sp)
 80000e4:	db000d17 	ldw	r12,52(sp)
        ldw   r13, 56(sp)
 80000e8:	db400e17 	ldw	r13,56(sp)
        ldw   r14, 60(sp)
 80000ec:	db800f17 	ldw	r14,60(sp)
        ldw   r15, 64(sp)
 80000f0:	dbc01017 	ldw	r15,64(sp)
        stw   et, %gprel(alt_stack_limit_value)(gp)
        stw   zero, %gprel(alt_exception_old_stack_limit)(gp)
#endif /* ALT_STACK_CHECK */
        ldw   sp,  76(sp)
#else /* ALT_EXCEPTION_STACK disabled */
        addi  sp, sp, 76
 80000f4:	dec01304 	addi	sp,sp,76

        /*
         * Return to the interrupted instruction.
         */

        eret
 80000f8:	ef80083a 	eret

080000fc <alt_irq_handler>:
 * instruction is present if the macro ALT_CI_INTERRUPT_VECTOR defined.
 */

void alt_irq_handler (void) __attribute__ ((section (".exceptions")));
void alt_irq_handler (void)
{
 80000fc:	defff904 	addi	sp,sp,-28
 8000100:	dfc00615 	stw	ra,24(sp)
 8000104:	df000515 	stw	fp,20(sp)
 8000108:	df000504 	addi	fp,sp,20
  
  /*
   * Notify the operating system that we are at interrupt level.
   */ 
  
  ALT_OS_INT_ENTER();
 800010c:	0001883a 	nop
#ifndef NIOS2_EIC_PRESENT
static ALT_INLINE alt_u32 ALT_ALWAYS_INLINE alt_irq_pending (void)
{
  alt_u32 active;

  NIOS2_READ_IPENDING (active);
 8000110:	0005313a 	rdctl	r2,ipending
 8000114:	e0bffe15 	stw	r2,-8(fp)

  return active;
 8000118:	e0bffe17 	ldw	r2,-8(fp)
   * Consider the case where the high priority interupt is asserted during
   * the interrupt entry sequence for a lower priority interrupt to see why
   * this is the case.
   */

  active = alt_irq_pending ();
 800011c:	e0bffb15 	stw	r2,-20(fp)

  do
  {
    i = 0;
 8000120:	e03ffd15 	stw	zero,-12(fp)
    mask = 1;
 8000124:	00800044 	movi	r2,1
 8000128:	e0bffc15 	stw	r2,-16(fp)
     * called to clear the interrupt condition.
     */

    do
    {
      if (active & mask)
 800012c:	e0fffb17 	ldw	r3,-20(fp)
 8000130:	e0bffc17 	ldw	r2,-16(fp)
 8000134:	1884703a 	and	r2,r3,r2
 8000138:	10001426 	beq	r2,zero,800018c <alt_irq_handler+0x90>
      { 
#ifdef ALT_ENHANCED_INTERRUPT_API_PRESENT
        alt_irq[i].handler(alt_irq[i].context); 
 800013c:	008200b4 	movhi	r2,2050
 8000140:	10a54204 	addi	r2,r2,-27384
 8000144:	e0fffd17 	ldw	r3,-12(fp)
 8000148:	180690fa 	slli	r3,r3,3
 800014c:	10c5883a 	add	r2,r2,r3
 8000150:	10c00017 	ldw	r3,0(r2)
 8000154:	008200b4 	movhi	r2,2050
 8000158:	10a54204 	addi	r2,r2,-27384
 800015c:	e13ffd17 	ldw	r4,-12(fp)
 8000160:	200890fa 	slli	r4,r4,3
 8000164:	1105883a 	add	r2,r2,r4
 8000168:	10800104 	addi	r2,r2,4
 800016c:	10800017 	ldw	r2,0(r2)
 8000170:	1009883a 	mov	r4,r2
 8000174:	183ee83a 	callr	r3
#else
        alt_irq[i].handler(alt_irq[i].context, i); 
#endif
        break;
 8000178:	0001883a 	nop
#ifndef NIOS2_EIC_PRESENT
static ALT_INLINE alt_u32 ALT_ALWAYS_INLINE alt_irq_pending (void)
{
  alt_u32 active;

  NIOS2_READ_IPENDING (active);
 800017c:	0005313a 	rdctl	r2,ipending
 8000180:	e0bfff15 	stw	r2,-4(fp)

  return active;
 8000184:	e0bfff17 	ldw	r2,-4(fp)
 8000188:	00000706 	br	80001a8 <alt_irq_handler+0xac>
      }
      mask <<= 1;
 800018c:	e0bffc17 	ldw	r2,-16(fp)
 8000190:	1085883a 	add	r2,r2,r2
 8000194:	e0bffc15 	stw	r2,-16(fp)
      i++;
 8000198:	e0bffd17 	ldw	r2,-12(fp)
 800019c:	10800044 	addi	r2,r2,1
 80001a0:	e0bffd15 	stw	r2,-12(fp)

    } while (1);
 80001a4:	003fe106 	br	800012c <__alt_data_end+0xfc00012c>

    active = alt_irq_pending ();
 80001a8:	e0bffb15 	stw	r2,-20(fp)
    
  } while (active);
 80001ac:	e0bffb17 	ldw	r2,-20(fp)
 80001b0:	103fdb1e 	bne	r2,zero,8000120 <__alt_data_end+0xfc000120>

  /*
   * Notify the operating system that interrupt processing is complete.
   */ 

  ALT_OS_INT_EXIT();
 80001b4:	0001883a 	nop
}
 80001b8:	0001883a 	nop
 80001bc:	e037883a 	mov	sp,fp
 80001c0:	dfc00117 	ldw	ra,4(sp)
 80001c4:	df000017 	ldw	fp,0(sp)
 80001c8:	dec00204 	addi	sp,sp,8
 80001cc:	f800283a 	ret

080001d0 <alt_instruction_exception_entry>:
 * that handler if it has been registered. Absent a handler, it will
 * break break or hang as discussed below.
 */
int 
alt_instruction_exception_entry (alt_u32 exception_pc)
{
 80001d0:	defffb04 	addi	sp,sp,-20
 80001d4:	dfc00415 	stw	ra,16(sp)
 80001d8:	df000315 	stw	fp,12(sp)
 80001dc:	df000304 	addi	fp,sp,12
 80001e0:	e13fff15 	stw	r4,-4(fp)
  cause = ( (cause & NIOS2_EXCEPTION_REG_CAUSE_MASK) >>
              NIOS2_EXCEPTION_REG_CAUSE_OFST );

  NIOS2_READ_BADADDR(badaddr);
#else
  cause = NIOS2_EXCEPTION_CAUSE_NOT_PRESENT;
 80001e4:	00bfffc4 	movi	r2,-1
 80001e8:	e0bffd15 	stw	r2,-12(fp)
  badaddr = 0;
 80001ec:	e03ffe15 	stw	zero,-8(fp)
#endif /* NIOS2_HAS_EXTRA_EXCEPTION_INFO */

  if(alt_instruction_exception_handler) {
 80001f0:	d0a70417 	ldw	r2,-25584(gp)
 80001f4:	10000726 	beq	r2,zero,8000214 <alt_instruction_exception_entry+0x44>
     * Call handler. Its return value indicates whether the exception-causing
     * instruction should be re-issued. The code that called us,
     * alt_eceptions_entry.S, will look at this value and adjust the ea
     * register as necessary
     */
    return alt_instruction_exception_handler(cause, exception_pc, badaddr);
 80001f8:	d0a70417 	ldw	r2,-25584(gp)
 80001fc:	e0fffd17 	ldw	r3,-12(fp)
 8000200:	e1bffe17 	ldw	r6,-8(fp)
 8000204:	e17fff17 	ldw	r5,-4(fp)
 8000208:	1809883a 	mov	r4,r3
 800020c:	103ee83a 	callr	r2
 8000210:	00000206 	br	800021c <alt_instruction_exception_entry+0x4c>
   *    (a peripheral which negates its interrupt output before its
   *    interrupt handler has been executed will cause spurious interrupts)
   */
  else {
#ifdef NIOS2_HAS_DEBUG_STUB
    NIOS2_BREAK();
 8000214:	003da03a 	break	0
      ;
#endif /* NIOS2_HAS_DEBUG_STUB */
  }

  /* We should not get here. Remove compiler warning. */
  return NIOS2_EXCEPTION_RETURN_REISSUE_INST;
 8000218:	0005883a 	mov	r2,zero
}
 800021c:	e037883a 	mov	sp,fp
 8000220:	dfc00117 	ldw	ra,4(sp)
 8000224:	df000017 	ldw	fp,0(sp)
 8000228:	dec00204 	addi	sp,sp,8
 800022c:	f800283a 	ret

Disassembly of section .text:

08000230 <_start>:

    /*
     * Now that the caches are initialized, set up the stack pointer and global pointer.
     * The values provided by the linker are assumed to be correctly aligned.
     */
    movhi sp, %hi(__alt_stack_pointer)
 8000230:	06c30034 	movhi	sp,3072
    ori sp, sp, %lo(__alt_stack_pointer)
 8000234:	dec00014 	ori	sp,sp,0
    movhi gp, %hi(_gp)
 8000238:	06820074 	movhi	gp,2049
    ori gp, gp, %lo(_gp)
 800023c:	d6bdd714 	ori	gp,gp,63324
 */
#ifndef ALT_SIM_OPTIMIZE
    /* Log that the BSS is about to be cleared. */
    ALT_LOG_PUTS(alt_log_msg_bss)

    movhi r2, %hi(__bss_start)
 8000240:	00820074 	movhi	r2,2049
    ori r2, r2, %lo(__bss_start)
 8000244:	10a4c814 	ori	r2,r2,37664

    movhi r3, %hi(__bss_end)
 8000248:	00c20074 	movhi	r3,2049
    ori r3, r3, %lo(__bss_end)
 800024c:	18e58214 	ori	r3,r3,38408

    beq r2, r3, 1f
 8000250:	10c00326 	beq	r2,r3,8000260 <_start+0x30>

0:
    stw zero, (r2)
 8000254:	10000015 	stw	zero,0(r2)
    addi r2, r2, 4
 8000258:	10800104 	addi	r2,r2,4
    bltu r2, r3, 0b
 800025c:	10fffd36 	bltu	r2,r3,8000254 <__alt_data_end+0xfc000254>
     * section aren't defined until alt_load() has been called).
     */
    mov   et, zero
#endif

    call alt_load
 8000260:	8010ed40 	call	8010ed4 <alt_load>

    /* Log that alt_main is about to be called. */
    ALT_LOG_PUTS(alt_log_msg_alt_main)

    /* Call the C entry point. It should never return. */
    call alt_main
 8000264:	80110700 	call	8011070 <alt_main>

08000268 <alt_after_alt_main>:

    /* Wait in infinite loop in case alt_main does return. */
alt_after_alt_main:
    br alt_after_alt_main
 8000268:	003fff06 	br	8000268 <__alt_data_end+0xfc000268>

0800026c <GetDriverandReport>:
extern HID_DEVICE hid_device;

static BYTE addr = 1; 				//hard-wired USB address
const char* const devclasses[] = { " Uninitialized", " HID Keyboard", " HID Mouse", " Mass storage" };

BYTE GetDriverandReport() {
 800026c:	defff604 	addi	sp,sp,-40
 8000270:	dfc00915 	stw	ra,36(sp)
 8000274:	df000815 	stw	fp,32(sp)
 8000278:	df000804 	addi	fp,sp,32
	BYTE i;
	BYTE rcode;
	BYTE device = 0xFF;
 800027c:	00bfffc4 	movi	r2,-1
 8000280:	e0bffd45 	stb	r2,-11(fp)
	BYTE tmpbyte;

	DEV_RECORD* tpl_ptr;
	printf("Reached USB_STATE_RUNNING (0x40)\n");
 8000284:	01020074 	movhi	r4,2049
 8000288:	21155404 	addi	r4,r4,21840
 800028c:	8003e140 	call	8003e14 <puts>
	for (i = 1; i < USB_NUMDEVICES; i++) {
 8000290:	00800044 	movi	r2,1
 8000294:	e0bffd05 	stb	r2,-12(fp)
 8000298:	00001f06 	br	8000318 <GetDriverandReport+0xac>
		tpl_ptr = GetDevtable(i);
 800029c:	e0bffd03 	ldbu	r2,-12(fp)
 80002a0:	1009883a 	mov	r4,r2
 80002a4:	8002e3c0 	call	8002e3c <GetDevtable>
 80002a8:	e0bffe15 	stw	r2,-8(fp)
		if (tpl_ptr->epinfo != NULL) {
 80002ac:	e0bffe17 	ldw	r2,-8(fp)
 80002b0:	10800017 	ldw	r2,0(r2)
 80002b4:	10001526 	beq	r2,zero,800030c <GetDriverandReport+0xa0>
			printf("Device: %d", i);
 80002b8:	e0bffd03 	ldbu	r2,-12(fp)
 80002bc:	100b883a 	mov	r5,r2
 80002c0:	01020074 	movhi	r4,2049
 80002c4:	21155d04 	addi	r4,r4,21876
 80002c8:	8003cf80 	call	8003cf8 <printf>
			printf("%s \n", devclasses[tpl_ptr->devclass]);
 80002cc:	e0bffe17 	ldw	r2,-8(fp)
 80002d0:	10800103 	ldbu	r2,4(r2)
 80002d4:	10c03fcc 	andi	r3,r2,255
 80002d8:	00820074 	movhi	r2,2049
 80002dc:	10955004 	addi	r2,r2,21824
 80002e0:	18c7883a 	add	r3,r3,r3
 80002e4:	18c7883a 	add	r3,r3,r3
 80002e8:	10c5883a 	add	r2,r2,r3
 80002ec:	10800017 	ldw	r2,0(r2)
 80002f0:	100b883a 	mov	r5,r2
 80002f4:	01020074 	movhi	r4,2049
 80002f8:	21156004 	addi	r4,r4,21888
 80002fc:	8003cf80 	call	8003cf8 <printf>
			device = tpl_ptr->devclass;
 8000300:	e0bffe17 	ldw	r2,-8(fp)
 8000304:	10800103 	ldbu	r2,4(r2)
 8000308:	e0bffd45 	stb	r2,-11(fp)
	BYTE device = 0xFF;
	BYTE tmpbyte;

	DEV_RECORD* tpl_ptr;
	printf("Reached USB_STATE_RUNNING (0x40)\n");
	for (i = 1; i < USB_NUMDEVICES; i++) {
 800030c:	e0bffd03 	ldbu	r2,-12(fp)
 8000310:	10800044 	addi	r2,r2,1
 8000314:	e0bffd05 	stb	r2,-12(fp)
 8000318:	e0bffd03 	ldbu	r2,-12(fp)
 800031c:	10800230 	cmpltui	r2,r2,8
 8000320:	103fde1e 	bne	r2,zero,800029c <__alt_data_end+0xfc00029c>
			printf("%s \n", devclasses[tpl_ptr->devclass]);
			device = tpl_ptr->devclass;
		}
	}
	//Query rate and protocol
	rcode = XferGetIdle(addr, 0, hid_device.interface, 0, &tmpbyte);
 8000324:	d0a00003 	ldbu	r2,-32768(gp)
 8000328:	11003fcc 	andi	r4,r2,255
 800032c:	d0a6f143 	ldbu	r2,-25659(gp)
 8000330:	10803fcc 	andi	r2,r2,255
 8000334:	e0ffff44 	addi	r3,fp,-3
 8000338:	d8c00415 	stw	r3,16(sp)
 800033c:	00c00044 	movi	r3,1
 8000340:	d8c00315 	stw	r3,12(sp)
 8000344:	d8800215 	stw	r2,8(sp)
 8000348:	d8000115 	stw	zero,4(sp)
 800034c:	d8000015 	stw	zero,0(sp)
 8000350:	01c00084 	movi	r7,2
 8000354:	01802844 	movi	r6,161
 8000358:	000b883a 	mov	r5,zero
 800035c:	80020600 	call	8002060 <XferCtrlReq>
 8000360:	e0bfff05 	stb	r2,-4(fp)
	if (rcode) {   //error handling
 8000364:	e0bfff03 	ldbu	r2,-4(fp)
 8000368:	10000926 	beq	r2,zero,8000390 <GetDriverandReport+0x124>
		printf("GetIdle Error. Error code: ");
 800036c:	01020074 	movhi	r4,2049
 8000370:	21156204 	addi	r4,r4,21896
 8000374:	8003cf80 	call	8003cf8 <printf>
		printf("%x \n", rcode);
 8000378:	e0bfff03 	ldbu	r2,-4(fp)
 800037c:	100b883a 	mov	r5,r2
 8000380:	01020074 	movhi	r4,2049
 8000384:	21156904 	addi	r4,r4,21924
 8000388:	8003cf80 	call	8003cf8 <printf>
 800038c:	00000906 	br	80003b4 <GetDriverandReport+0x148>
	} else {
		printf("Update rate: ");
 8000390:	01020074 	movhi	r4,2049
 8000394:	21156b04 	addi	r4,r4,21932
 8000398:	8003cf80 	call	8003cf8 <printf>
		printf("%x \n", tmpbyte);
 800039c:	e0bfff43 	ldbu	r2,-3(fp)
 80003a0:	10803fcc 	andi	r2,r2,255
 80003a4:	100b883a 	mov	r5,r2
 80003a8:	01020074 	movhi	r4,2049
 80003ac:	21156904 	addi	r4,r4,21924
 80003b0:	8003cf80 	call	8003cf8 <printf>
	}
	printf("Protocol: ");
 80003b4:	01020074 	movhi	r4,2049
 80003b8:	21156f04 	addi	r4,r4,21948
 80003bc:	8003cf80 	call	8003cf8 <printf>
	rcode = XferGetProto(addr, 0, hid_device.interface, &tmpbyte);
 80003c0:	d0a00003 	ldbu	r2,-32768(gp)
 80003c4:	11003fcc 	andi	r4,r2,255
 80003c8:	d0a6f143 	ldbu	r2,-25659(gp)
 80003cc:	10803fcc 	andi	r2,r2,255
 80003d0:	e0ffff44 	addi	r3,fp,-3
 80003d4:	d8c00415 	stw	r3,16(sp)
 80003d8:	00c00044 	movi	r3,1
 80003dc:	d8c00315 	stw	r3,12(sp)
 80003e0:	d8800215 	stw	r2,8(sp)
 80003e4:	d8000115 	stw	zero,4(sp)
 80003e8:	d8000015 	stw	zero,0(sp)
 80003ec:	01c000c4 	movi	r7,3
 80003f0:	01802844 	movi	r6,161
 80003f4:	000b883a 	mov	r5,zero
 80003f8:	80020600 	call	8002060 <XferCtrlReq>
 80003fc:	e0bfff05 	stb	r2,-4(fp)
	if (rcode) {   //error handling
 8000400:	e0bfff03 	ldbu	r2,-4(fp)
 8000404:	10000926 	beq	r2,zero,800042c <GetDriverandReport+0x1c0>
		printf("GetProto Error. Error code ");
 8000408:	01020074 	movhi	r4,2049
 800040c:	21157204 	addi	r4,r4,21960
 8000410:	8003cf80 	call	8003cf8 <printf>
		printf("%x \n", rcode);
 8000414:	e0bfff03 	ldbu	r2,-4(fp)
 8000418:	100b883a 	mov	r5,r2
 800041c:	01020074 	movhi	r4,2049
 8000420:	21156904 	addi	r4,r4,21924
 8000424:	8003cf80 	call	8003cf8 <printf>
 8000428:	00000606 	br	8000444 <GetDriverandReport+0x1d8>
	} else {
		printf("%d \n", tmpbyte);
 800042c:	e0bfff43 	ldbu	r2,-3(fp)
 8000430:	10803fcc 	andi	r2,r2,255
 8000434:	100b883a 	mov	r5,r2
 8000438:	01020074 	movhi	r4,2049
 800043c:	21157904 	addi	r4,r4,21988
 8000440:	8003cf80 	call	8003cf8 <printf>
	}
	return device;
 8000444:	e0bffd43 	ldbu	r2,-11(fp)
}
 8000448:	e037883a 	mov	sp,fp
 800044c:	dfc00117 	ldw	ra,4(sp)
 8000450:	df000017 	ldw	fp,0(sp)
 8000454:	dec00204 	addi	sp,sp,8
 8000458:	f800283a 	ret

0800045c <setKeycode>:

void setKeycode(WORD keycode)
{
 800045c:	defffe04 	addi	sp,sp,-8
 8000460:	df000115 	stw	fp,4(sp)
 8000464:	df000104 	addi	fp,sp,4
 8000468:	2005883a 	mov	r2,r4
 800046c:	e0bfff0d 	sth	r2,-4(fp)
	IOWR_ALTERA_AVALON_PIO_DATA(KEYCODE_BASE, keycode);
 8000470:	e0ffff0b 	ldhu	r3,-4(fp)
 8000474:	00801c04 	movi	r2,112
 8000478:	10c00035 	stwio	r3,0(r2)
}
 800047c:	0001883a 	nop
 8000480:	e037883a 	mov	sp,fp
 8000484:	df000017 	ldw	fp,0(sp)
 8000488:	dec00104 	addi	sp,sp,4
 800048c:	f800283a 	ret

08000490 <main>:
int main() {
 8000490:	defff504 	addi	sp,sp,-44
 8000494:	dfc00a15 	stw	ra,40(sp)
 8000498:	df000915 	stw	fp,36(sp)
 800049c:	df000904 	addi	fp,sp,36

	ALT_AVALON_I2C_DEV_t *i2c_dev; //pointer to instance structure
			//get a pointer to the Avalon i2c instance
			i2c_dev = alt_avalon_i2c_open("/dev/i2c"); //this has to reflect Platform Designer name
 80004a0:	01020074 	movhi	r4,2049
 80004a4:	21157b04 	addi	r4,r4,21996
 80004a8:	8011ad00 	call	8011ad0 <alt_avalon_i2c_open>
 80004ac:	e0bff915 	stw	r2,-28(fp)
			if (NULL==i2c_dev)						     //check the BSP if unsure
 80004b0:	e0bff917 	ldw	r2,-28(fp)
 80004b4:	1000051e 	bne	r2,zero,80004cc <main+0x3c>
			{
				printf("Error: Cannot find /dev/i2c_0\n");
 80004b8:	01020074 	movhi	r4,2049
 80004bc:	21157e04 	addi	r4,r4,22008
 80004c0:	8003e140 	call	8003e14 <puts>
				return 1;
 80004c4:	00800044 	movi	r2,1
 80004c8:	00017e06 	br	8000ac4 <main+0x634>
			}
			printf ("I2C Test Program\n");
 80004cc:	01020074 	movhi	r4,2049
 80004d0:	21158604 	addi	r4,r4,22040
 80004d4:	8003e140 	call	8003e14 <puts>

			alt_avalon_i2c_master_target_set(i2c_dev,0xA); //CODEC at address 0b0001010
 80004d8:	01400284 	movi	r5,10
 80004dc:	e13ff917 	ldw	r4,-28(fp)
 80004e0:	80122a00 	call	80122a0 <alt_avalon_i2c_master_target_set>
			//print device ID (verify I2C is working)
			printf( "Device ID register: %x\n", SGTL5000_Reg_Rd (i2c_dev, SGTL5000_CHIP_ID));
 80004e4:	000b883a 	mov	r5,zero
 80004e8:	e13ff917 	ldw	r4,-28(fp)
 80004ec:	8000ad80 	call	8000ad8 <SGTL5000_Reg_Rd>
 80004f0:	10bfffcc 	andi	r2,r2,65535
 80004f4:	100b883a 	mov	r5,r2
 80004f8:	01020074 	movhi	r4,2049
 80004fc:	21158b04 	addi	r4,r4,22060
 8000500:	8003cf80 	call	8003cf8 <printf>

			//configure PLL, input frequency is 12.5 MHz, output frequency is 180.6336 MHz if 44.1kHz is desired
			//or 196.608 MHz else
			BYTE int_divisor = 180633600/12500000;
 8000504:	00800384 	movi	r2,14
 8000508:	e0bffa05 	stb	r2,-24(fp)
			WORD frac_divisor = (WORD)(((180633600.0f/12500000.0f) - (float)int_divisor) * 2048.0f);
 800050c:	e0bffa03 	ldbu	r2,-24(fp)
 8000510:	1009883a 	mov	r4,r2
 8000514:	8003b740 	call	8003b74 <__floatunsisf>
 8000518:	1007883a 	mov	r3,r2
 800051c:	180b883a 	mov	r5,r3
 8000520:	011059f4 	movhi	r4,16743
 8000524:	210d8144 	addi	r4,r4,13829
 8000528:	80036200 	call	8003620 <__subsf3>
 800052c:	1007883a 	mov	r3,r2
 8000530:	1805883a 	mov	r2,r3
 8000534:	01514034 	movhi	r5,17664
 8000538:	1009883a 	mov	r4,r2
 800053c:	80031f00 	call	80031f0 <__mulsf3>
 8000540:	1007883a 	mov	r3,r2
 8000544:	1805883a 	mov	r2,r3
 8000548:	1009883a 	mov	r4,r2
 800054c:	8002ef80 	call	8002ef8 <__fixunssfsi>
 8000550:	e0bffa8d 	sth	r2,-22(fp)
			printf( "Programming PLL with integer divisor: %d, fractional divisor %d\n", int_divisor, frac_divisor);
 8000554:	e0bffa03 	ldbu	r2,-24(fp)
 8000558:	e0fffa8b 	ldhu	r3,-22(fp)
 800055c:	180d883a 	mov	r6,r3
 8000560:	100b883a 	mov	r5,r2
 8000564:	01020074 	movhi	r4,2049
 8000568:	21159104 	addi	r4,r4,22084
 800056c:	8003cf80 	call	8003cf8 <printf>
			SGTL5000_Reg_Wr(i2c_dev, SGTL5000_CHIP_PLL_CTRL, \
						int_divisor << SGTL5000_PLL_INT_DIV_SHIFT|
 8000570:	e0bffa03 	ldbu	r2,-24(fp)
 8000574:	100492fa 	slli	r2,r2,11
			//configure PLL, input frequency is 12.5 MHz, output frequency is 180.6336 MHz if 44.1kHz is desired
			//or 196.608 MHz else
			BYTE int_divisor = 180633600/12500000;
			WORD frac_divisor = (WORD)(((180633600.0f/12500000.0f) - (float)int_divisor) * 2048.0f);
			printf( "Programming PLL with integer divisor: %d, fractional divisor %d\n", int_divisor, frac_divisor);
			SGTL5000_Reg_Wr(i2c_dev, SGTL5000_CHIP_PLL_CTRL, \
 8000578:	1007883a 	mov	r3,r2
 800057c:	e0bffa8b 	ldhu	r2,-22(fp)
 8000580:	1884b03a 	or	r2,r3,r2
 8000584:	10bfffcc 	andi	r2,r2,65535
 8000588:	100d883a 	mov	r6,r2
 800058c:	01400c84 	movi	r5,50
 8000590:	e13ff917 	ldw	r4,-28(fp)
 8000594:	8000b8c0 	call	8000b8c <SGTL5000_Reg_Wr>
						int_divisor << SGTL5000_PLL_INT_DIV_SHIFT|
						frac_divisor << SGTL5000_PLL_FRAC_DIV_SHIFT);
			printf( "CHIP_PLL_CTRL register: %x\n", SGTL5000_Reg_Rd (i2c_dev, SGTL5000_CHIP_PLL_CTRL));
 8000598:	01400c84 	movi	r5,50
 800059c:	e13ff917 	ldw	r4,-28(fp)
 80005a0:	8000ad80 	call	8000ad8 <SGTL5000_Reg_Rd>
 80005a4:	10bfffcc 	andi	r2,r2,65535
 80005a8:	100b883a 	mov	r5,r2
 80005ac:	01020074 	movhi	r4,2049
 80005b0:	2115a204 	addi	r4,r4,22152
 80005b4:	8003cf80 	call	8003cf8 <printf>

			//configure power control, disable internal VDDD, VDDIO=3.3V, VDDA=VDDD=1.8V (ext)
			SGTL5000_Reg_Wr(i2c_dev, SGTL5000_CHIP_ANA_POWER, \
 80005b8:	01917f84 	movi	r6,17918
 80005bc:	01400c04 	movi	r5,48
 80005c0:	e13ff917 	ldw	r4,-28(fp)
 80005c4:	8000b8c0 	call	8000b8c <SGTL5000_Reg_Wr>
					SGTL5000_REFTOP_POWERUP|
					SGTL5000_HP_POWERUP|
					SGTL5000_DAC_POWERUP|
					SGTL5000_CAPLESS_HP_POWERUP|
					SGTL5000_ADC_POWERUP);
			printf( "CHIP_ANA_POWER register: %x\n", SGTL5000_Reg_Rd (i2c_dev, SGTL5000_CHIP_ANA_POWER));
 80005c8:	01400c04 	movi	r5,48
 80005cc:	e13ff917 	ldw	r4,-28(fp)
 80005d0:	8000ad80 	call	8000ad8 <SGTL5000_Reg_Rd>
 80005d4:	10bfffcc 	andi	r2,r2,65535
 80005d8:	100b883a 	mov	r5,r2
 80005dc:	01020074 	movhi	r4,2049
 80005e0:	2115a904 	addi	r4,r4,22180
 80005e4:	8003cf80 	call	8003cf8 <printf>

			//select internal ground bias to .9V (1.8V/2)
			SGTL5000_Reg_Wr(i2c_dev, SGTL5000_CHIP_REF_CTRL, 0x004E);
 80005e8:	01801384 	movi	r6,78
 80005ec:	01400a04 	movi	r5,40
 80005f0:	e13ff917 	ldw	r4,-28(fp)
 80005f4:	8000b8c0 	call	8000b8c <SGTL5000_Reg_Wr>
			printf( "CHIP_REF_CTRL register: %x\n", SGTL5000_Reg_Rd (i2c_dev, SGTL5000_CHIP_REF_CTRL));
 80005f8:	01400a04 	movi	r5,40
 80005fc:	e13ff917 	ldw	r4,-28(fp)
 8000600:	8000ad80 	call	8000ad8 <SGTL5000_Reg_Rd>
 8000604:	10bfffcc 	andi	r2,r2,65535
 8000608:	100b883a 	mov	r5,r2
 800060c:	01020074 	movhi	r4,2049
 8000610:	2115b104 	addi	r4,r4,22212
 8000614:	8003cf80 	call	8003cf8 <printf>

			//enable core modules
			SGTL5000_Reg_Wr(i2c_dev, SGTL5000_CHIP_DIG_POWER,\
 8000618:	018018c4 	movi	r6,99
 800061c:	01400084 	movi	r5,2
 8000620:	e13ff917 	ldw	r4,-28(fp)
 8000624:	8000b8c0 	call	8000b8c <SGTL5000_Reg_Wr>
					SGTL5000_ADC_EN|
					SGTL5000_DAC_EN|
					//SGTL5000_DAP_POWERUP| //disable digital audio processor in CODEC
					SGTL5000_I2S_OUT_POWERUP|
					SGTL5000_I2S_IN_POWERUP);
			printf( "CHIP_DIG_POWER register: %x\n", SGTL5000_Reg_Rd (i2c_dev, SGTL5000_CHIP_DIG_POWER));
 8000628:	01400084 	movi	r5,2
 800062c:	e13ff917 	ldw	r4,-28(fp)
 8000630:	8000ad80 	call	8000ad8 <SGTL5000_Reg_Rd>
 8000634:	10bfffcc 	andi	r2,r2,65535
 8000638:	100b883a 	mov	r5,r2
 800063c:	01020074 	movhi	r4,2049
 8000640:	2115b804 	addi	r4,r4,22240
 8000644:	8003cf80 	call	8003cf8 <printf>


			//MCLK is 12.5 MHz, configure clocks to use PLL
			SGTL5000_Reg_Wr(i2c_dev, SGTL5000_CHIP_CLK_CTRL, \
 8000648:	018001c4 	movi	r6,7
 800064c:	01400104 	movi	r5,4
 8000650:	e13ff917 	ldw	r4,-28(fp)
 8000654:	8000b8c0 	call	8000b8c <SGTL5000_Reg_Wr>
					SGTL5000_SYS_FS_44_1k << SGTL5000_SYS_FS_SHIFT |
					SGTL5000_MCLK_FREQ_PLL << SGTL5000_MCLK_FREQ_SHIFT);
			printf( "CHIP_CLK_CTRL register: %x\n", SGTL5000_Reg_Rd (i2c_dev, SGTL5000_CHIP_CLK_CTRL));
 8000658:	01400104 	movi	r5,4
 800065c:	e13ff917 	ldw	r4,-28(fp)
 8000660:	8000ad80 	call	8000ad8 <SGTL5000_Reg_Rd>
 8000664:	10bfffcc 	andi	r2,r2,65535
 8000668:	100b883a 	mov	r5,r2
 800066c:	01020074 	movhi	r4,2049
 8000670:	2115c004 	addi	r4,r4,22272
 8000674:	8003cf80 	call	8003cf8 <printf>

			//Set as I2S master
			SGTL5000_Reg_Wr(i2c_dev, SGTL5000_CHIP_I2S_CTRL, SGTL5000_I2S_MASTER);
 8000678:	01802004 	movi	r6,128
 800067c:	01400184 	movi	r5,6
 8000680:	e13ff917 	ldw	r4,-28(fp)
 8000684:	8000b8c0 	call	8000b8c <SGTL5000_Reg_Wr>
			printf( "CHIP_I2S_CTRL register: %x\n", SGTL5000_Reg_Rd (i2c_dev, SGTL5000_CHIP_I2S_CTRL));
 8000688:	01400184 	movi	r5,6
 800068c:	e13ff917 	ldw	r4,-28(fp)
 8000690:	8000ad80 	call	8000ad8 <SGTL5000_Reg_Rd>
 8000694:	10bfffcc 	andi	r2,r2,65535
 8000698:	100b883a 	mov	r5,r2
 800069c:	01020074 	movhi	r4,2049
 80006a0:	2115c704 	addi	r4,r4,22300
 80006a4:	8003cf80 	call	8003cf8 <printf>

			//ADC input from Line
			SGTL5000_Reg_Wr(i2c_dev, SGTL5000_CHIP_ANA_CTRL, \
 80006a8:	01800104 	movi	r6,4
 80006ac:	01400904 	movi	r5,36
 80006b0:	e13ff917 	ldw	r4,-28(fp)
 80006b4:	8000b8c0 	call	8000b8c <SGTL5000_Reg_Wr>
					SGTL5000_ADC_SEL_LINE_IN << SGTL5000_ADC_SEL_SHIFT);
			printf( "CHIP_ANA_CTRL register: %x\n", SGTL5000_Reg_Rd (i2c_dev, SGTL5000_CHIP_ANA_CTRL));
 80006b8:	01400904 	movi	r5,36
 80006bc:	e13ff917 	ldw	r4,-28(fp)
 80006c0:	8000ad80 	call	8000ad8 <SGTL5000_Reg_Rd>
 80006c4:	10bfffcc 	andi	r2,r2,65535
 80006c8:	100b883a 	mov	r5,r2
 80006cc:	01020074 	movhi	r4,2049
 80006d0:	2115ce04 	addi	r4,r4,22328
 80006d4:	8003cf80 	call	8003cf8 <printf>

			//ADC -> I2S out, I2S in -> DAC
			SGTL5000_Reg_Wr(i2c_dev, SGTL5000_CHIP_SSS_CTRL, \
 80006d8:	01800404 	movi	r6,16
 80006dc:	01400284 	movi	r5,10
 80006e0:	e13ff917 	ldw	r4,-28(fp)
 80006e4:	8000b8c0 	call	8000b8c <SGTL5000_Reg_Wr>
					SGTL5000_DAC_SEL_I2S_IN << SGTL5000_DAC_SEL_SHIFT |
					SGTL5000_I2S_OUT_SEL_ADC << SGTL5000_I2S_OUT_SEL_SHIFT);
			printf( "CHIP_SSS_CTRL register: %x\n", SGTL5000_Reg_Rd (i2c_dev, SGTL5000_CHIP_SSS_CTRL));
 80006e8:	01400284 	movi	r5,10
 80006ec:	e13ff917 	ldw	r4,-28(fp)
 80006f0:	8000ad80 	call	8000ad8 <SGTL5000_Reg_Rd>
 80006f4:	10bfffcc 	andi	r2,r2,65535
 80006f8:	100b883a 	mov	r5,r2
 80006fc:	01020074 	movhi	r4,2049
 8000700:	2115d504 	addi	r4,r4,22356
 8000704:	8003cf80 	call	8003cf8 <printf>

			printf( "CHIP_ANA_CTRL register: %x\n", SGTL5000_Reg_Rd (i2c_dev, SGTL5000_CHIP_ANA_CTRL));
 8000708:	01400904 	movi	r5,36
 800070c:	e13ff917 	ldw	r4,-28(fp)
 8000710:	8000ad80 	call	8000ad8 <SGTL5000_Reg_Rd>
 8000714:	10bfffcc 	andi	r2,r2,65535
 8000718:	100b883a 	mov	r5,r2
 800071c:	01020074 	movhi	r4,2049
 8000720:	2115ce04 	addi	r4,r4,22328
 8000724:	8003cf80 	call	8003cf8 <printf>

			//ADC -> I2S out, I2S in -> DAC
			SGTL5000_Reg_Wr(i2c_dev, SGTL5000_CHIP_ADCDAC_CTRL, 0x0000);
 8000728:	000d883a 	mov	r6,zero
 800072c:	01400384 	movi	r5,14
 8000730:	e13ff917 	ldw	r4,-28(fp)
 8000734:	8000b8c0 	call	8000b8c <SGTL5000_Reg_Wr>
			printf( "CHIP_ADCDAC_CTRL register: %x\n", SGTL5000_Reg_Rd (i2c_dev, SGTL5000_CHIP_ADCDAC_CTRL));
 8000738:	01400384 	movi	r5,14
 800073c:	e13ff917 	ldw	r4,-28(fp)
 8000740:	8000ad80 	call	8000ad8 <SGTL5000_Reg_Rd>
 8000744:	10bfffcc 	andi	r2,r2,65535
 8000748:	100b883a 	mov	r5,r2
 800074c:	01020074 	movhi	r4,2049
 8000750:	2115dc04 	addi	r4,r4,22384
 8000754:	8003cf80 	call	8003cf8 <printf>
			printf( "CHIP_PAD_STRENGTH register: %x\n", SGTL5000_Reg_Rd (i2c_dev, SGTL5000_CHIP_PAD_STRENGTH));
 8000758:	01400504 	movi	r5,20
 800075c:	e13ff917 	ldw	r4,-28(fp)
 8000760:	8000ad80 	call	8000ad8 <SGTL5000_Reg_Rd>
 8000764:	10bfffcc 	andi	r2,r2,65535
 8000768:	100b883a 	mov	r5,r2
 800076c:	01020074 	movhi	r4,2049
 8000770:	2115e404 	addi	r4,r4,22416
 8000774:	8003cf80 	call	8003cf8 <printf>

	BYTE rcode;
	BOOT_MOUSE_REPORT buf;		//USB mouse report
	BOOT_KBD_REPORT kbdbuf;

	BYTE runningdebugflag = 0;//flag to dump out a bunch of information when we first get to USB_STATE_RUNNING
 8000778:	e03ff705 	stb	zero,-36(fp)
	BYTE errorflag = 0; //flag once we get an error device so we don't keep dumping out state info
 800077c:	e03ff745 	stb	zero,-35(fp)
	BYTE device;
	WORD keycode;

	printf("initializing MAX3421E...\n");
 8000780:	01020074 	movhi	r4,2049
 8000784:	2115ec04 	addi	r4,r4,22448
 8000788:	8003e140 	call	8003e14 <puts>
	MAX3421E_init();
 800078c:	8001e680 	call	8001e68 <MAX3421E_init>
	printf("initializing USB...\n");
 8000790:	01020074 	movhi	r4,2049
 8000794:	2115f304 	addi	r4,r4,22476
 8000798:	8003e140 	call	8003e14 <puts>
	USB_init();
 800079c:	80026140 	call	8002614 <USB_init>
	while (1) {
		printf(".");
 80007a0:	01000b84 	movi	r4,46
 80007a4:	8003d3c0 	call	8003d3c <putchar>
		MAX3421E_Task();
 80007a8:	8001efc0 	call	8001efc <MAX3421E_Task>
		USB_Task();
 80007ac:	80026ac0 	call	80026ac <USB_Task>
		//usleep (500000);
		if (GetUsbTaskState() == USB_STATE_RUNNING) {
 80007b0:	8002e1c0 	call	8002e1c <GetUsbTaskState>
 80007b4:	10803fcc 	andi	r2,r2,255
 80007b8:	10801018 	cmpnei	r2,r2,64
 80007bc:	10009d1e 	bne	r2,zero,8000a34 <main+0x5a4>
			if (!runningdebugflag) {
 80007c0:	e0bff703 	ldbu	r2,-36(fp)
 80007c4:	1000071e 	bne	r2,zero,80007e4 <main+0x354>
				runningdebugflag = 1;
 80007c8:	00800044 	movi	r2,1
 80007cc:	e0bff705 	stb	r2,-36(fp)
				setLED(9);
 80007d0:	01000244 	movi	r4,9
 80007d4:	8000c2c0 	call	8000c2c <setLED>
				device = GetDriverandReport();
 80007d8:	800026c0 	call	800026c <GetDriverandReport>
 80007dc:	e0bff785 	stb	r2,-34(fp)
 80007e0:	003fef06 	br	80007a0 <__alt_data_end+0xfc0007a0>
			} else if (device == 1) {
 80007e4:	e0bff783 	ldbu	r2,-34(fp)
 80007e8:	10800058 	cmpnei	r2,r2,1
 80007ec:	1000351e 	bne	r2,zero,80008c4 <main+0x434>
				//run keyboard debug polling
				rcode = kbdPoll(&kbdbuf);
 80007f0:	e0bffd44 	addi	r2,fp,-11
 80007f4:	1009883a 	mov	r4,r2
 80007f8:	80017e00 	call	80017e0 <kbdPoll>
 80007fc:	e0bffb05 	stb	r2,-20(fp)
				if (rcode == hrNAK) {
 8000800:	e0bffb03 	ldbu	r2,-20(fp)
 8000804:	10800118 	cmpnei	r2,r2,4
 8000808:	1000aa26 	beq	r2,zero,8000ab4 <main+0x624>
					continue; //NAK means no new data
				} else if (rcode) {
 800080c:	e0bffb03 	ldbu	r2,-20(fp)
 8000810:	10000926 	beq	r2,zero,8000838 <main+0x3a8>
					printf("Rcode: ");
 8000814:	01020074 	movhi	r4,2049
 8000818:	2115f804 	addi	r4,r4,22496
 800081c:	8003cf80 	call	8003cf8 <printf>
					printf("%x \n", rcode);
 8000820:	e0bffb03 	ldbu	r2,-20(fp)
 8000824:	100b883a 	mov	r5,r2
 8000828:	01020074 	movhi	r4,2049
 800082c:	21156904 	addi	r4,r4,21924
 8000830:	8003cf80 	call	8003cf8 <printf>
					continue;
 8000834:	0000a206 	br	8000ac0 <main+0x630>
				}
				printf("keycodes: ");
 8000838:	01020074 	movhi	r4,2049
 800083c:	2115fa04 	addi	r4,r4,22504
 8000840:	8003cf80 	call	8003cf8 <printf>
				for (int i = 0; i < 6; i++) {
 8000844:	e03ff815 	stw	zero,-32(fp)
 8000848:	00000c06 	br	800087c <main+0x3ec>
					printf("%x ", kbdbuf.keycode[i]);
 800084c:	e0fffdc4 	addi	r3,fp,-9
 8000850:	e0bff817 	ldw	r2,-32(fp)
 8000854:	1885883a 	add	r2,r3,r2
 8000858:	10800003 	ldbu	r2,0(r2)
 800085c:	10803fcc 	andi	r2,r2,255
 8000860:	100b883a 	mov	r5,r2
 8000864:	01020074 	movhi	r4,2049
 8000868:	2115fd04 	addi	r4,r4,22516
 800086c:	8003cf80 	call	8003cf8 <printf>
					printf("Rcode: ");
					printf("%x \n", rcode);
					continue;
				}
				printf("keycodes: ");
				for (int i = 0; i < 6; i++) {
 8000870:	e0bff817 	ldw	r2,-32(fp)
 8000874:	10800044 	addi	r2,r2,1
 8000878:	e0bff815 	stw	r2,-32(fp)
 800087c:	e0bff817 	ldw	r2,-32(fp)
 8000880:	10800190 	cmplti	r2,r2,6
 8000884:	103ff11e 	bne	r2,zero,800084c <__alt_data_end+0xfc00084c>
					printf("%x ", kbdbuf.keycode[i]);
				}
				setKeycode(kbdbuf.keycode[0]);
 8000888:	e0bffdc3 	ldbu	r2,-9(fp)
 800088c:	10803fcc 	andi	r2,r2,255
 8000890:	1009883a 	mov	r4,r2
 8000894:	800045c0 	call	800045c <setKeycode>
				printSignedHex0(kbdbuf.keycode[0]);
 8000898:	e0bffdc3 	ldbu	r2,-9(fp)
 800089c:	10803fcc 	andi	r2,r2,255
 80008a0:	1009883a 	mov	r4,r2
 80008a4:	8000cb80 	call	8000cb8 <printSignedHex0>
				printSignedHex1(kbdbuf.keycode[1]);
 80008a8:	e0bffe03 	ldbu	r2,-8(fp)
 80008ac:	10803fcc 	andi	r2,r2,255
 80008b0:	1009883a 	mov	r4,r2
 80008b4:	8000dd00 	call	8000dd0 <printSignedHex1>
				printf("\n");
 80008b8:	01000284 	movi	r4,10
 80008bc:	8003d3c0 	call	8003d3c <putchar>
 80008c0:	003fb706 	br	80007a0 <__alt_data_end+0xfc0007a0>
			}

			else if (device == 2) {
 80008c4:	e0bff783 	ldbu	r2,-34(fp)
 80008c8:	10800098 	cmpnei	r2,r2,2
 80008cc:	103fb41e 	bne	r2,zero,80007a0 <__alt_data_end+0xfc0007a0>
				rcode = mousePoll(&buf);
 80008d0:	e0bffb44 	addi	r2,fp,-19
 80008d4:	1009883a 	mov	r4,r2
 80008d8:	80017580 	call	8001758 <mousePoll>
 80008dc:	e0bffb05 	stb	r2,-20(fp)
				if (rcode == hrNAK) {
 80008e0:	e0bffb03 	ldbu	r2,-20(fp)
 80008e4:	10800118 	cmpnei	r2,r2,4
 80008e8:	10007426 	beq	r2,zero,8000abc <main+0x62c>
					//NAK means no new data
					continue;
				} else if (rcode) {
 80008ec:	e0bffb03 	ldbu	r2,-20(fp)
 80008f0:	10000926 	beq	r2,zero,8000918 <main+0x488>
					printf("Rcode: ");
 80008f4:	01020074 	movhi	r4,2049
 80008f8:	2115f804 	addi	r4,r4,22496
 80008fc:	8003cf80 	call	8003cf8 <printf>
					printf("%x \n", rcode);
 8000900:	e0bffb03 	ldbu	r2,-20(fp)
 8000904:	100b883a 	mov	r5,r2
 8000908:	01020074 	movhi	r4,2049
 800090c:	21156904 	addi	r4,r4,21924
 8000910:	8003cf80 	call	8003cf8 <printf>
					continue;
 8000914:	00006a06 	br	8000ac0 <main+0x630>
				}
				printf("X displacement: ");
 8000918:	01020074 	movhi	r4,2049
 800091c:	2115fe04 	addi	r4,r4,22520
 8000920:	8003cf80 	call	8003cf8 <printf>
				printf("%d ", (signed char) buf.Xdispl);
 8000924:	e0bffb83 	ldbu	r2,-18(fp)
 8000928:	10803fcc 	andi	r2,r2,255
 800092c:	1080201c 	xori	r2,r2,128
 8000930:	10bfe004 	addi	r2,r2,-128
 8000934:	100b883a 	mov	r5,r2
 8000938:	01020074 	movhi	r4,2049
 800093c:	21160304 	addi	r4,r4,22540
 8000940:	8003cf80 	call	8003cf8 <printf>
				printSignedHex0((signed char) buf.Xdispl);
 8000944:	e0bffb83 	ldbu	r2,-18(fp)
 8000948:	10803fcc 	andi	r2,r2,255
 800094c:	1080201c 	xori	r2,r2,128
 8000950:	10bfe004 	addi	r2,r2,-128
 8000954:	1009883a 	mov	r4,r2
 8000958:	8000cb80 	call	8000cb8 <printSignedHex0>
				printf("Y displacement: ");
 800095c:	01020074 	movhi	r4,2049
 8000960:	21160404 	addi	r4,r4,22544
 8000964:	8003cf80 	call	8003cf8 <printf>
				printf("%d ", (signed char) buf.Ydispl);
 8000968:	e0bffbc3 	ldbu	r2,-17(fp)
 800096c:	10803fcc 	andi	r2,r2,255
 8000970:	1080201c 	xori	r2,r2,128
 8000974:	10bfe004 	addi	r2,r2,-128
 8000978:	100b883a 	mov	r5,r2
 800097c:	01020074 	movhi	r4,2049
 8000980:	21160304 	addi	r4,r4,22540
 8000984:	8003cf80 	call	8003cf8 <printf>
				printSignedHex1((signed char) buf.Ydispl);
 8000988:	e0bffbc3 	ldbu	r2,-17(fp)
 800098c:	10803fcc 	andi	r2,r2,255
 8000990:	1080201c 	xori	r2,r2,128
 8000994:	10bfe004 	addi	r2,r2,-128
 8000998:	1009883a 	mov	r4,r2
 800099c:	8000dd00 	call	8000dd0 <printSignedHex1>
				printf("Buttons: ");
 80009a0:	01020074 	movhi	r4,2049
 80009a4:	21160904 	addi	r4,r4,22564
 80009a8:	8003cf80 	call	8003cf8 <printf>
				printf("%x\n", buf.button);
 80009ac:	e0bffb43 	ldbu	r2,-19(fp)
 80009b0:	10803fcc 	andi	r2,r2,255
 80009b4:	100b883a 	mov	r5,r2
 80009b8:	01020074 	movhi	r4,2049
 80009bc:	21160c04 	addi	r4,r4,22576
 80009c0:	8003cf80 	call	8003cf8 <printf>
				if (buf.button & 0x04)
 80009c4:	e0bffb43 	ldbu	r2,-19(fp)
 80009c8:	10803fcc 	andi	r2,r2,255
 80009cc:	1080010c 	andi	r2,r2,4
 80009d0:	10000326 	beq	r2,zero,80009e0 <main+0x550>
					setLED(2);
 80009d4:	01000084 	movi	r4,2
 80009d8:	8000c2c0 	call	8000c2c <setLED>
 80009dc:	00000206 	br	80009e8 <main+0x558>
				else
					clearLED(2);
 80009e0:	01000084 	movi	r4,2
 80009e4:	8000c700 	call	8000c70 <clearLED>
				if (buf.button & 0x02)
 80009e8:	e0bffb43 	ldbu	r2,-19(fp)
 80009ec:	10803fcc 	andi	r2,r2,255
 80009f0:	1080008c 	andi	r2,r2,2
 80009f4:	10000326 	beq	r2,zero,8000a04 <main+0x574>
					setLED(1);
 80009f8:	01000044 	movi	r4,1
 80009fc:	8000c2c0 	call	8000c2c <setLED>
 8000a00:	00000206 	br	8000a0c <main+0x57c>
				else
					clearLED(1);
 8000a04:	01000044 	movi	r4,1
 8000a08:	8000c700 	call	8000c70 <clearLED>
				if (buf.button & 0x01)
 8000a0c:	e0bffb43 	ldbu	r2,-19(fp)
 8000a10:	10803fcc 	andi	r2,r2,255
 8000a14:	1080004c 	andi	r2,r2,1
 8000a18:	10000326 	beq	r2,zero,8000a28 <main+0x598>
					setLED(0);
 8000a1c:	0009883a 	mov	r4,zero
 8000a20:	8000c2c0 	call	8000c2c <setLED>
 8000a24:	003f5e06 	br	80007a0 <__alt_data_end+0xfc0007a0>
				else
					clearLED(0);
 8000a28:	0009883a 	mov	r4,zero
 8000a2c:	8000c700 	call	8000c70 <clearLED>
 8000a30:	003f5b06 	br	80007a0 <__alt_data_end+0xfc0007a0>
			}
		} else if (GetUsbTaskState() == USB_STATE_ERROR) {
 8000a34:	8002e1c0 	call	8002e1c <GetUsbTaskState>
 8000a38:	10803fcc 	andi	r2,r2,255
 8000a3c:	10803fd8 	cmpnei	r2,r2,255
 8000a40:	10000a1e 	bne	r2,zero,8000a6c <main+0x5dc>
			if (!errorflag) {
 8000a44:	e0bff743 	ldbu	r2,-35(fp)
 8000a48:	103f551e 	bne	r2,zero,80007a0 <__alt_data_end+0xfc0007a0>
				errorflag = 1;
 8000a4c:	00800044 	movi	r2,1
 8000a50:	e0bff745 	stb	r2,-35(fp)
				clearLED(9);
 8000a54:	01000244 	movi	r4,9
 8000a58:	8000c700 	call	8000c70 <clearLED>
				printf("USB Error State\n");
 8000a5c:	01020074 	movhi	r4,2049
 8000a60:	21160d04 	addi	r4,r4,22580
 8000a64:	8003e140 	call	8003e14 <puts>
 8000a68:	003f4d06 	br	80007a0 <__alt_data_end+0xfc0007a0>
				//print out string descriptor here
			}
		} else //not in USB running state
		{

			printf("USB task state: ");
 8000a6c:	01020074 	movhi	r4,2049
 8000a70:	21161104 	addi	r4,r4,22596
 8000a74:	8003cf80 	call	8003cf8 <printf>
			printf("%x\n", GetUsbTaskState());
 8000a78:	8002e1c0 	call	8002e1c <GetUsbTaskState>
 8000a7c:	10803fcc 	andi	r2,r2,255
 8000a80:	100b883a 	mov	r5,r2
 8000a84:	01020074 	movhi	r4,2049
 8000a88:	21160c04 	addi	r4,r4,22576
 8000a8c:	8003cf80 	call	8003cf8 <printf>
			if (runningdebugflag) {	//previously running, reset USB hardware just to clear out any funky state, HS/FS etc
 8000a90:	e0bff703 	ldbu	r2,-36(fp)
 8000a94:	10000326 	beq	r2,zero,8000aa4 <main+0x614>
				runningdebugflag = 0;
 8000a98:	e03ff705 	stb	zero,-36(fp)
				MAX3421E_init();
 8000a9c:	8001e680 	call	8001e68 <MAX3421E_init>
				USB_init();
 8000aa0:	80026140 	call	8002614 <USB_init>
			}
			errorflag = 0;
 8000aa4:	e03ff745 	stb	zero,-35(fp)
			clearLED(9);
 8000aa8:	01000244 	movi	r4,9
 8000aac:	8000c700 	call	8000c70 <clearLED>
 8000ab0:	003f3b06 	br	80007a0 <__alt_data_end+0xfc0007a0>
				device = GetDriverandReport();
			} else if (device == 1) {
				//run keyboard debug polling
				rcode = kbdPoll(&kbdbuf);
				if (rcode == hrNAK) {
					continue; //NAK means no new data
 8000ab4:	0001883a 	nop
 8000ab8:	003f3906 	br	80007a0 <__alt_data_end+0xfc0007a0>

			else if (device == 2) {
				rcode = mousePoll(&buf);
				if (rcode == hrNAK) {
					//NAK means no new data
					continue;
 8000abc:	0001883a 	nop
			}
			errorflag = 0;
			clearLED(9);
		}

	}
 8000ac0:	003f3706 	br	80007a0 <__alt_data_end+0xfc0007a0>




	return 0;
}
 8000ac4:	e037883a 	mov	sp,fp
 8000ac8:	dfc00117 	ldw	ra,4(sp)
 8000acc:	df000017 	ldw	fp,0(sp)
 8000ad0:	dec00204 	addi	sp,sp,8
 8000ad4:	f800283a 	ret

08000ad8 <SGTL5000_Reg_Rd>:
#include "sgtl5000.h"
#include "altera_avalon_i2c.h"
#include "altera_avalon_i2c_regs.h"

WORD SGTL5000_Reg_Rd (ALT_AVALON_I2C_DEV_t* dev, WORD ADDR)
{
 8000ad8:	defff804 	addi	sp,sp,-32
 8000adc:	dfc00715 	stw	ra,28(sp)
 8000ae0:	df000615 	stw	fp,24(sp)
 8000ae4:	df000604 	addi	fp,sp,24
 8000ae8:	e13ffe15 	stw	r4,-8(fp)
 8000aec:	2805883a 	mov	r2,r5
 8000af0:	e0bfff0d 	sth	r2,-4(fp)
	BYTE buffer[2];
	WORD value;
	buffer[0] = (ADDR & 0xFF00) >> 8;
 8000af4:	e0bfff0b 	ldhu	r2,-4(fp)
 8000af8:	1004d23a 	srli	r2,r2,8
 8000afc:	e0bffd85 	stb	r2,-10(fp)
	buffer[1] = (ADDR & 0x00FF);
 8000b00:	e0bfff0b 	ldhu	r2,-4(fp)
 8000b04:	e0bffdc5 	stb	r2,-9(fp)

	ALT_AVALON_I2C_STATUS_CODE status=alt_avalon_i2c_master_tx_rx(dev,buffer,2,buffer,2,0);
 8000b08:	e13ffd84 	addi	r4,fp,-10
 8000b0c:	e0fffd84 	addi	r3,fp,-10
 8000b10:	d8000115 	stw	zero,4(sp)
 8000b14:	00800084 	movi	r2,2
 8000b18:	d8800015 	stw	r2,0(sp)
 8000b1c:	200f883a 	mov	r7,r4
 8000b20:	01800084 	movi	r6,2
 8000b24:	180b883a 	mov	r5,r3
 8000b28:	e13ffe17 	ldw	r4,-8(fp)
 8000b2c:	80126cc0 	call	80126cc <alt_avalon_i2c_master_tx_rx>
 8000b30:	e0bffc15 	stw	r2,-16(fp)

	if (status != ALT_AVALON_I2C_SUCCESS){
 8000b34:	e0bffc17 	ldw	r2,-16(fp)
 8000b38:	10000626 	beq	r2,zero,8000b54 <SGTL5000_Reg_Rd+0x7c>
		printf ("SGTL5000 I2C error, address: %x", ADDR);
 8000b3c:	e0bfff0b 	ldhu	r2,-4(fp)
 8000b40:	100b883a 	mov	r5,r2
 8000b44:	01020074 	movhi	r4,2049
 8000b48:	21161604 	addi	r4,r4,22616
 8000b4c:	8003cf80 	call	8003cf8 <printf>
		while (1)
		{
			//hang here
		}
 8000b50:	003fff06 	br	8000b50 <__alt_data_end+0xfc000b50>
	}
	value = (buffer[0] << 8) | buffer[1];
 8000b54:	e0bffd83 	ldbu	r2,-10(fp)
 8000b58:	10803fcc 	andi	r2,r2,255
 8000b5c:	1004923a 	slli	r2,r2,8
 8000b60:	1007883a 	mov	r3,r2
 8000b64:	e0bffdc3 	ldbu	r2,-9(fp)
 8000b68:	10803fcc 	andi	r2,r2,255
 8000b6c:	1884b03a 	or	r2,r3,r2
 8000b70:	e0bffd0d 	sth	r2,-12(fp)
	return value;
 8000b74:	e0bffd0b 	ldhu	r2,-12(fp)
}
 8000b78:	e037883a 	mov	sp,fp
 8000b7c:	dfc00117 	ldw	ra,4(sp)
 8000b80:	df000017 	ldw	fp,0(sp)
 8000b84:	dec00204 	addi	sp,sp,8
 8000b88:	f800283a 	ret

08000b8c <SGTL5000_Reg_Wr>:

WORD SGTL5000_Reg_Wr (ALT_AVALON_I2C_DEV_t* dev, WORD ADDR, WORD DATA)
{
 8000b8c:	defff904 	addi	sp,sp,-28
 8000b90:	dfc00615 	stw	ra,24(sp)
 8000b94:	df000515 	stw	fp,20(sp)
 8000b98:	df000504 	addi	fp,sp,20
 8000b9c:	e13ffd15 	stw	r4,-12(fp)
 8000ba0:	2807883a 	mov	r3,r5
 8000ba4:	3005883a 	mov	r2,r6
 8000ba8:	e0fffe0d 	sth	r3,-8(fp)
 8000bac:	e0bfff0d 	sth	r2,-4(fp)
	BYTE buffer[4];
	buffer[0] = (ADDR & 0xFF00) >> 8;
 8000bb0:	e0bffe0b 	ldhu	r2,-8(fp)
 8000bb4:	1004d23a 	srli	r2,r2,8
 8000bb8:	e0bffc05 	stb	r2,-16(fp)
	buffer[1] = (ADDR & 0x00FF);
 8000bbc:	e0bffe0b 	ldhu	r2,-8(fp)
 8000bc0:	e0bffc45 	stb	r2,-15(fp)
	buffer[2] = (DATA & 0xFF00) >> 8;
 8000bc4:	e0bfff0b 	ldhu	r2,-4(fp)
 8000bc8:	1004d23a 	srli	r2,r2,8
 8000bcc:	e0bffc85 	stb	r2,-14(fp)
	buffer[3] = (DATA & 0x00FF);
 8000bd0:	e0bfff0b 	ldhu	r2,-4(fp)
 8000bd4:	e0bffcc5 	stb	r2,-13(fp)


	ALT_AVALON_I2C_STATUS_CODE status=alt_avalon_i2c_master_tx(dev,buffer,4,0);
 8000bd8:	e0bffc04 	addi	r2,fp,-16
 8000bdc:	000f883a 	mov	r7,zero
 8000be0:	01800104 	movi	r6,4
 8000be4:	100b883a 	mov	r5,r2
 8000be8:	e13ffd17 	ldw	r4,-12(fp)
 8000bec:	80124a80 	call	80124a8 <alt_avalon_i2c_master_tx>
 8000bf0:	e0bffb15 	stw	r2,-20(fp)

	if (status != ALT_AVALON_I2C_SUCCESS){
 8000bf4:	e0bffb17 	ldw	r2,-20(fp)
 8000bf8:	10000626 	beq	r2,zero,8000c14 <SGTL5000_Reg_Wr+0x88>
		printf ("SGTL5000 I2C error, address: %x", ADDR);
 8000bfc:	e0bffe0b 	ldhu	r2,-8(fp)
 8000c00:	100b883a 	mov	r5,r2
 8000c04:	01020074 	movhi	r4,2049
 8000c08:	21161604 	addi	r4,r4,22616
 8000c0c:	8003cf80 	call	8003cf8 <printf>
		while (1)
		{
			//hang here
		}
 8000c10:	003fff06 	br	8000c10 <__alt_data_end+0xfc000c10>
	}
	return DATA;
 8000c14:	e0bfff0b 	ldhu	r2,-4(fp)
}
 8000c18:	e037883a 	mov	sp,fp
 8000c1c:	dfc00117 	ldw	ra,4(sp)
 8000c20:	df000017 	ldw	fp,0(sp)
 8000c24:	dec00204 	addi	sp,sp,8
 8000c28:	f800283a 	ret

08000c2c <setLED>:
#include "../usb_kb/GenericTypeDefs.h"
#include "sgtl5000.h"


void setLED(int LED)
{
 8000c2c:	defffe04 	addi	sp,sp,-8
 8000c30:	df000115 	stw	fp,4(sp)
 8000c34:	df000104 	addi	fp,sp,4
 8000c38:	e13fff15 	stw	r4,-4(fp)
	IOWR_ALTERA_AVALON_PIO_DATA(LEDS_PIO_BASE, (IORD_ALTERA_AVALON_PIO_DATA(LEDS_PIO_BASE) | (0x001 << LED)));
 8000c3c:	00800404 	movi	r2,16
 8000c40:	10c00037 	ldwio	r3,0(r2)
 8000c44:	01000044 	movi	r4,1
 8000c48:	e0bfff17 	ldw	r2,-4(fp)
 8000c4c:	2084983a 	sll	r2,r4,r2
 8000c50:	1886b03a 	or	r3,r3,r2
 8000c54:	00800404 	movi	r2,16
 8000c58:	10c00035 	stwio	r3,0(r2)
}
 8000c5c:	0001883a 	nop
 8000c60:	e037883a 	mov	sp,fp
 8000c64:	df000017 	ldw	fp,0(sp)
 8000c68:	dec00104 	addi	sp,sp,4
 8000c6c:	f800283a 	ret

08000c70 <clearLED>:

void clearLED(int LED)
{
 8000c70:	defffe04 	addi	sp,sp,-8
 8000c74:	df000115 	stw	fp,4(sp)
 8000c78:	df000104 	addi	fp,sp,4
 8000c7c:	e13fff15 	stw	r4,-4(fp)
	IOWR_ALTERA_AVALON_PIO_DATA(LEDS_PIO_BASE, (IORD_ALTERA_AVALON_PIO_DATA(LEDS_PIO_BASE) & ~(0x001 << LED)));
 8000c80:	00800404 	movi	r2,16
 8000c84:	10c00037 	ldwio	r3,0(r2)
 8000c88:	01000044 	movi	r4,1
 8000c8c:	e0bfff17 	ldw	r2,-4(fp)
 8000c90:	2084983a 	sll	r2,r4,r2
 8000c94:	0084303a 	nor	r2,zero,r2
 8000c98:	1886703a 	and	r3,r3,r2
 8000c9c:	00800404 	movi	r2,16
 8000ca0:	10c00035 	stwio	r3,0(r2)

}
 8000ca4:	0001883a 	nop
 8000ca8:	e037883a 	mov	sp,fp
 8000cac:	df000017 	ldw	fp,0(sp)
 8000cb0:	dec00104 	addi	sp,sp,4
 8000cb4:	f800283a 	ret

08000cb8 <printSignedHex0>:

void printSignedHex0(signed char value)
{
 8000cb8:	defffc04 	addi	sp,sp,-16
 8000cbc:	dfc00315 	stw	ra,12(sp)
 8000cc0:	df000215 	stw	fp,8(sp)
 8000cc4:	df000204 	addi	fp,sp,8
 8000cc8:	2005883a 	mov	r2,r4
 8000ccc:	e0bfff05 	stb	r2,-4(fp)
	BYTE tens = 0;
 8000cd0:	e03ffe05 	stb	zero,-8(fp)
	BYTE ones = 0;
 8000cd4:	e03ffe45 	stb	zero,-7(fp)
	WORD pio_val = IORD_ALTERA_AVALON_PIO_DATA(HEX_DIGITS_PIO_BASE);
 8000cd8:	00801004 	movi	r2,64
 8000cdc:	10800037 	ldwio	r2,0(r2)
 8000ce0:	e0bffe8d 	sth	r2,-6(fp)
	if (value < 0)
 8000ce4:	e0bfff07 	ldb	r2,-4(fp)
 8000ce8:	1000060e 	bge	r2,zero,8000d04 <printSignedHex0+0x4c>
	{
		setLED(11);
 8000cec:	010002c4 	movi	r4,11
 8000cf0:	8000c2c0 	call	8000c2c <setLED>
		value = -value;
 8000cf4:	e0bfff03 	ldbu	r2,-4(fp)
 8000cf8:	0085c83a 	sub	r2,zero,r2
 8000cfc:	e0bfff05 	stb	r2,-4(fp)
 8000d00:	00000206 	br	8000d0c <printSignedHex0+0x54>
	}
	else
	{
		clearLED(11);
 8000d04:	010002c4 	movi	r4,11
 8000d08:	8000c700 	call	8000c70 <clearLED>
	}
	//handled hundreds
	if (value / 100)
 8000d0c:	e0bfff03 	ldbu	r2,-4(fp)
 8000d10:	108018c4 	addi	r2,r2,99
 8000d14:	10803fcc 	andi	r2,r2,255
 8000d18:	108031f0 	cmpltui	r2,r2,199
 8000d1c:	1000031e 	bne	r2,zero,8000d2c <printSignedHex0+0x74>
		setLED(13);
 8000d20:	01000344 	movi	r4,13
 8000d24:	8000c2c0 	call	8000c2c <setLED>
 8000d28:	00000206 	br	8000d34 <printSignedHex0+0x7c>
	else
		clearLED(13);
 8000d2c:	01000344 	movi	r4,13
 8000d30:	8000c700 	call	8000c70 <clearLED>

	value = value % 100;
 8000d34:	e0bfff07 	ldb	r2,-4(fp)
 8000d38:	01401904 	movi	r5,100
 8000d3c:	1009883a 	mov	r4,r2
 8000d40:	8002fdc0 	call	8002fdc <__modsi3>
 8000d44:	e0bfff05 	stb	r2,-4(fp)
	tens = value / 10;
 8000d48:	e0bfff07 	ldb	r2,-4(fp)
 8000d4c:	01400284 	movi	r5,10
 8000d50:	1009883a 	mov	r4,r2
 8000d54:	8002f580 	call	8002f58 <__divsi3>
 8000d58:	e0bffe05 	stb	r2,-8(fp)
	ones = value % 10;
 8000d5c:	e0bfff07 	ldb	r2,-4(fp)
 8000d60:	01400284 	movi	r5,10
 8000d64:	1009883a 	mov	r4,r2
 8000d68:	8002fdc0 	call	8002fdc <__modsi3>
 8000d6c:	e0bffe45 	stb	r2,-7(fp)

	pio_val &= 0x00FF;
 8000d70:	e0bffe8b 	ldhu	r2,-6(fp)
 8000d74:	10803fcc 	andi	r2,r2,255
 8000d78:	e0bffe8d 	sth	r2,-6(fp)
	pio_val |= (tens << 12);
 8000d7c:	e0bffe03 	ldbu	r2,-8(fp)
 8000d80:	1004933a 	slli	r2,r2,12
 8000d84:	1007883a 	mov	r3,r2
 8000d88:	e0bffe8b 	ldhu	r2,-6(fp)
 8000d8c:	1884b03a 	or	r2,r3,r2
 8000d90:	e0bffe8d 	sth	r2,-6(fp)
	pio_val |= (ones << 8);
 8000d94:	e0bffe43 	ldbu	r2,-7(fp)
 8000d98:	1004923a 	slli	r2,r2,8
 8000d9c:	1007883a 	mov	r3,r2
 8000da0:	e0bffe8b 	ldhu	r2,-6(fp)
 8000da4:	1884b03a 	or	r2,r3,r2
 8000da8:	e0bffe8d 	sth	r2,-6(fp)

	IOWR_ALTERA_AVALON_PIO_DATA(HEX_DIGITS_PIO_BASE, pio_val);
 8000dac:	e0fffe8b 	ldhu	r3,-6(fp)
 8000db0:	00801004 	movi	r2,64
 8000db4:	10c00035 	stwio	r3,0(r2)
}
 8000db8:	0001883a 	nop
 8000dbc:	e037883a 	mov	sp,fp
 8000dc0:	dfc00117 	ldw	ra,4(sp)
 8000dc4:	df000017 	ldw	fp,0(sp)
 8000dc8:	dec00204 	addi	sp,sp,8
 8000dcc:	f800283a 	ret

08000dd0 <printSignedHex1>:

void printSignedHex1(signed char value)
{
 8000dd0:	defffb04 	addi	sp,sp,-20
 8000dd4:	dfc00415 	stw	ra,16(sp)
 8000dd8:	df000315 	stw	fp,12(sp)
 8000ddc:	df000304 	addi	fp,sp,12
 8000de0:	2005883a 	mov	r2,r4
 8000de4:	e0bfff05 	stb	r2,-4(fp)
	BYTE tens = 0;
 8000de8:	e03ffd05 	stb	zero,-12(fp)
	BYTE ones = 0;
 8000dec:	e03ffd45 	stb	zero,-11(fp)
	DWORD pio_val = IORD_ALTERA_AVALON_PIO_DATA(HEX_DIGITS_PIO_BASE);
 8000df0:	00801004 	movi	r2,64
 8000df4:	10800037 	ldwio	r2,0(r2)
 8000df8:	e0bffe15 	stw	r2,-8(fp)
	if (value < 0)
 8000dfc:	e0bfff07 	ldb	r2,-4(fp)
 8000e00:	1000060e 	bge	r2,zero,8000e1c <printSignedHex1+0x4c>
	{
		setLED(10);
 8000e04:	01000284 	movi	r4,10
 8000e08:	8000c2c0 	call	8000c2c <setLED>
		value = -value;
 8000e0c:	e0bfff03 	ldbu	r2,-4(fp)
 8000e10:	0085c83a 	sub	r2,zero,r2
 8000e14:	e0bfff05 	stb	r2,-4(fp)
 8000e18:	00000206 	br	8000e24 <printSignedHex1+0x54>
	}
	else
	{
		clearLED(10);
 8000e1c:	01000284 	movi	r4,10
 8000e20:	8000c700 	call	8000c70 <clearLED>
	}
	//handled hundreds
	if (value / 100)
 8000e24:	e0bfff03 	ldbu	r2,-4(fp)
 8000e28:	108018c4 	addi	r2,r2,99
 8000e2c:	10803fcc 	andi	r2,r2,255
 8000e30:	108031f0 	cmpltui	r2,r2,199
 8000e34:	1000031e 	bne	r2,zero,8000e44 <printSignedHex1+0x74>
		setLED(12);
 8000e38:	01000304 	movi	r4,12
 8000e3c:	8000c2c0 	call	8000c2c <setLED>
 8000e40:	00000206 	br	8000e4c <printSignedHex1+0x7c>
	else
		clearLED(12);
 8000e44:	01000304 	movi	r4,12
 8000e48:	8000c700 	call	8000c70 <clearLED>

	value = value % 100;
 8000e4c:	e0bfff07 	ldb	r2,-4(fp)
 8000e50:	01401904 	movi	r5,100
 8000e54:	1009883a 	mov	r4,r2
 8000e58:	8002fdc0 	call	8002fdc <__modsi3>
 8000e5c:	e0bfff05 	stb	r2,-4(fp)
	tens = value / 10;
 8000e60:	e0bfff07 	ldb	r2,-4(fp)
 8000e64:	01400284 	movi	r5,10
 8000e68:	1009883a 	mov	r4,r2
 8000e6c:	8002f580 	call	8002f58 <__divsi3>
 8000e70:	e0bffd05 	stb	r2,-12(fp)
	ones = value % 10;
 8000e74:	e0bfff07 	ldb	r2,-4(fp)
 8000e78:	01400284 	movi	r5,10
 8000e7c:	1009883a 	mov	r4,r2
 8000e80:	8002fdc0 	call	8002fdc <__modsi3>
 8000e84:	e0bffd45 	stb	r2,-11(fp)
	tens = value / 10;
 8000e88:	e0bfff07 	ldb	r2,-4(fp)
 8000e8c:	01400284 	movi	r5,10
 8000e90:	1009883a 	mov	r4,r2
 8000e94:	8002f580 	call	8002f58 <__divsi3>
 8000e98:	e0bffd05 	stb	r2,-12(fp)
	ones = value % 10;
 8000e9c:	e0bfff07 	ldb	r2,-4(fp)
 8000ea0:	01400284 	movi	r5,10
 8000ea4:	1009883a 	mov	r4,r2
 8000ea8:	8002fdc0 	call	8002fdc <__modsi3>
 8000eac:	e0bffd45 	stb	r2,-11(fp)

	pio_val &= 0xFF00;
 8000eb0:	e0bffe17 	ldw	r2,-8(fp)
 8000eb4:	10bfc00c 	andi	r2,r2,65280
 8000eb8:	e0bffe15 	stw	r2,-8(fp)
	pio_val |= (tens << 4);
 8000ebc:	e0bffd03 	ldbu	r2,-12(fp)
 8000ec0:	1004913a 	slli	r2,r2,4
 8000ec4:	1007883a 	mov	r3,r2
 8000ec8:	e0bffe17 	ldw	r2,-8(fp)
 8000ecc:	10c4b03a 	or	r2,r2,r3
 8000ed0:	e0bffe15 	stw	r2,-8(fp)
	pio_val |= (ones << 0);
 8000ed4:	e0bffd43 	ldbu	r2,-11(fp)
 8000ed8:	e0fffe17 	ldw	r3,-8(fp)
 8000edc:	1884b03a 	or	r2,r3,r2
 8000ee0:	e0bffe15 	stw	r2,-8(fp)

	IOWR_ALTERA_AVALON_PIO_DATA(HEX_DIGITS_PIO_BASE, pio_val);
 8000ee4:	e0fffe17 	ldw	r3,-8(fp)
 8000ee8:	00801004 	movi	r2,64
 8000eec:	10c00035 	stwio	r3,0(r2)
}
 8000ef0:	0001883a 	nop
 8000ef4:	e037883a 	mov	sp,fp
 8000ef8:	dfc00117 	ldw	ra,4(sp)
 8000efc:	df000017 	ldw	fp,0(sp)
 8000f00:	dec00204 	addi	sp,sp,8
 8000f04:	f800283a 	ret

08000f08 <HIDMProbe>:
/* HID Mouse probe. Called from USB state machine.                          */
/* assumes configuration length is less than 256 bytes                      */
/* looks for Class:03, Subclass: 01, Protocol: 02 in interface descriptor   */
/* sets mouse in boot protocol                                              */
/* assumes single configuration and interface configuration 0               */
BOOL HIDMProbe(BYTE addr, DWORD flags) {
 8000f08:	defff204 	addi	sp,sp,-56
 8000f0c:	dfc00d15 	stw	ra,52(sp)
 8000f10:	df000c15 	stw	fp,48(sp)
 8000f14:	df000c04 	addi	fp,sp,48
 8000f18:	2005883a 	mov	r2,r4
 8000f1c:	e17fff15 	stw	r5,-4(fp)
 8000f20:	e0bffe05 	stb	r2,-8(fp)
	BYTE tmpbyte;
	BYTE rcode;
	BYTE confvalue;
	WORD total_length;
	USB_DESCR* data_ptr = (USB_DESCR *) &bigbuf;
 8000f24:	008200b4 	movhi	r2,2050
 8000f28:	10a4f004 	addi	r2,r2,-27712
 8000f2c:	e0bffa15 	stw	r2,-24(fp)
	BYTE* byte_ptr = bigbuf;
 8000f30:	008200b4 	movhi	r2,2050
 8000f34:	10a4f004 	addi	r2,r2,-27712
 8000f38:	e0bffb15 	stw	r2,-20(fp)
	rcode = XferGetConfDescr(addr, 0, CONF_DESCR_LEN, 0, bigbuf); //get configuration descriptor
 8000f3c:	e0fffe03 	ldbu	r3,-8(fp)
 8000f40:	008200b4 	movhi	r2,2050
 8000f44:	10a4f004 	addi	r2,r2,-27712
 8000f48:	d8800415 	stw	r2,16(sp)
 8000f4c:	00800244 	movi	r2,9
 8000f50:	d8800315 	stw	r2,12(sp)
 8000f54:	d8000215 	stw	zero,8(sp)
 8000f58:	00800084 	movi	r2,2
 8000f5c:	d8800115 	stw	r2,4(sp)
 8000f60:	d8000015 	stw	zero,0(sp)
 8000f64:	01c00184 	movi	r7,6
 8000f68:	01802004 	movi	r6,128
 8000f6c:	000b883a 	mov	r5,zero
 8000f70:	1809883a 	mov	r4,r3
 8000f74:	80020600 	call	8002060 <XferCtrlReq>
 8000f78:	e0bffc05 	stb	r2,-16(fp)
	if (rcode) {   //error handling
 8000f7c:	e0bffc03 	ldbu	r2,-16(fp)
 8000f80:	10000226 	beq	r2,zero,8000f8c <HIDMProbe+0x84>
		//printf("unable to get configuration descriptor");
		return (FALSE);
 8000f84:	0005883a 	mov	r2,zero
 8000f88:	0000dc06 	br	80012fc <HIDMProbe+0x3f4>
	}
	if (data_ptr->descr.config.wTotalLength > 256) {
 8000f8c:	e0bffa17 	ldw	r2,-24(fp)
 8000f90:	1080008b 	ldhu	r2,2(r2)
 8000f94:	10bfffcc 	andi	r2,r2,65535
 8000f98:	10804070 	cmpltui	r2,r2,257
 8000f9c:	1000031e 	bne	r2,zero,8000fac <HIDMProbe+0xa4>
		total_length = 256;
 8000fa0:	00804004 	movi	r2,256
 8000fa4:	e0bff90d 	sth	r2,-28(fp)
 8000fa8:	00000306 	br	8000fb8 <HIDMProbe+0xb0>
	} else {
		total_length = data_ptr->descr.config.wTotalLength;
 8000fac:	e0bffa17 	ldw	r2,-24(fp)
 8000fb0:	1080008b 	ldhu	r2,2(r2)
 8000fb4:	e0bff90d 	sth	r2,-28(fp)
	}
	rcode = XferGetConfDescr(addr, 0, total_length, 0, bigbuf); //get the whole configuration
 8000fb8:	e13ffe03 	ldbu	r4,-8(fp)
 8000fbc:	e0fff90b 	ldhu	r3,-28(fp)
 8000fc0:	008200b4 	movhi	r2,2050
 8000fc4:	10a4f004 	addi	r2,r2,-27712
 8000fc8:	d8800415 	stw	r2,16(sp)
 8000fcc:	d8c00315 	stw	r3,12(sp)
 8000fd0:	d8000215 	stw	zero,8(sp)
 8000fd4:	00800084 	movi	r2,2
 8000fd8:	d8800115 	stw	r2,4(sp)
 8000fdc:	d8000015 	stw	zero,0(sp)
 8000fe0:	01c00184 	movi	r7,6
 8000fe4:	01802004 	movi	r6,128
 8000fe8:	000b883a 	mov	r5,zero
 8000fec:	80020600 	call	8002060 <XferCtrlReq>
 8000ff0:	e0bffc05 	stb	r2,-16(fp)
	if (rcode) {   //error handling
 8000ff4:	e0bffc03 	ldbu	r2,-16(fp)
 8000ff8:	10000226 	beq	r2,zero,8001004 <HIDMProbe+0xfc>
		//printf("unable to get configuration");
		return (FALSE);
 8000ffc:	0005883a 	mov	r2,zero
 8001000:	0000be06 	br	80012fc <HIDMProbe+0x3f4>
	}
	confvalue = data_ptr->descr.config.bConfigurationValue;
 8001004:	e0bffa17 	ldw	r2,-24(fp)
 8001008:	10800143 	ldbu	r2,5(r2)
 800100c:	e0bffc45 	stb	r2,-15(fp)
	//printf("checking configuration value (length: %d): ",
	//		data_ptr->descr.config.wTotalLength);
	//for (int i = 0; i < data_ptr->descr.config.wTotalLength; i++) {
		//printf("%x ", (unsigned char) (bigbuf[i] & 0xff));
	//}
	while (byte_ptr < bigbuf + total_length) {
 8001010:	0000b306 	br	80012e0 <HIDMProbe+0x3d8>
		if (data_ptr->descr.config.bDescriptorType != USB_DESCRIPTOR_INTERFACE) {
 8001014:	e0bffa17 	ldw	r2,-24(fp)
 8001018:	10800043 	ldbu	r2,1(r2)
 800101c:	10803fcc 	andi	r2,r2,255
 8001020:	10800120 	cmpeqi	r2,r2,4
 8001024:	1000091e 	bne	r2,zero,800104c <HIDMProbe+0x144>
			byte_ptr = byte_ptr + data_ptr->descr.config.bLength;
 8001028:	e0bffa17 	ldw	r2,-24(fp)
 800102c:	10800003 	ldbu	r2,0(r2)
 8001030:	10803fcc 	andi	r2,r2,255
 8001034:	e0fffb17 	ldw	r3,-20(fp)
 8001038:	1885883a 	add	r2,r3,r2
 800103c:	e0bffb15 	stw	r2,-20(fp)
			data_ptr = (USB_DESCR*) byte_ptr;
 8001040:	e0bffb17 	ldw	r2,-20(fp)
 8001044:	e0bffa15 	stw	r2,-24(fp)
 8001048:	0000a506 	br	80012e0 <HIDMProbe+0x3d8>
		} // if( data_ptr->descr.config.bDescriptorType != USB_DESCRIPTOR_INTERFACE
		else {
			//printf("starting interface parsing at byte location %d\n",
			//		data_ptr->descr.config.bLength);
			BYTE class = data_ptr->descr.interface.bInterfaceClass;
 800104c:	e0bffa17 	ldw	r2,-24(fp)
 8001050:	10800143 	ldbu	r2,5(r2)
 8001054:	e0bffc85 	stb	r2,-14(fp)
			BYTE subclass = data_ptr->descr.interface.bInterfaceSubClass;
 8001058:	e0bffa17 	ldw	r2,-24(fp)
 800105c:	10800183 	ldbu	r2,6(r2)
 8001060:	e0bffcc5 	stb	r2,-13(fp)
			BYTE protocol = data_ptr->descr.interface.bInterfaceProtocol;
 8001064:	e0bffa17 	ldw	r2,-24(fp)
 8001068:	108001c3 	ldbu	r2,7(r2)
 800106c:	e0bffd05 	stb	r2,-12(fp)
			//printf("class %x, subclass %x, protocol %x,\n", class, subclass,
			//		protocol);
			//interface descriptor
			if (class == HID_INTF && subclass == BOOT_INTF_SUBCLASS
 8001070:	e0bffc83 	ldbu	r2,-14(fp)
 8001074:	108000d8 	cmpnei	r2,r2,3
 8001078:	1000971e 	bne	r2,zero,80012d8 <HIDMProbe+0x3d0>
 800107c:	e0bffcc3 	ldbu	r2,-13(fp)
 8001080:	10800058 	cmpnei	r2,r2,1
 8001084:	1000941e 	bne	r2,zero,80012d8 <HIDMProbe+0x3d0>
					&& protocol == HID_PROTOCOL_MOUSE) {
 8001088:	e0bffd03 	ldbu	r2,-12(fp)
 800108c:	10800098 	cmpnei	r2,r2,2
 8001090:	1000911e 	bne	r2,zero,80012d8 <HIDMProbe+0x3d0>
				//detected a mouse
				devtable[addr].devclass = HID_M;                  //device class
 8001094:	e0fffe03 	ldbu	r3,-8(fp)
 8001098:	008200b4 	movhi	r2,2050
 800109c:	10a53004 	addi	r2,r2,-27456
 80010a0:	180690fa 	slli	r3,r3,3
 80010a4:	10c5883a 	add	r2,r2,r3
 80010a8:	10800104 	addi	r2,r2,4
 80010ac:	00c00084 	movi	r3,2
 80010b0:	10c00005 	stb	r3,0(r2)
				tmpbyte = devtable[addr].epinfo->MaxPktSize;
 80010b4:	e0fffe03 	ldbu	r3,-8(fp)
 80010b8:	008200b4 	movhi	r2,2050
 80010bc:	10a53004 	addi	r2,r2,-27456
 80010c0:	180690fa 	slli	r3,r3,3
 80010c4:	10c5883a 	add	r2,r2,r3
 80010c8:	10800017 	ldw	r2,0(r2)
 80010cc:	1080008b 	ldhu	r2,2(r2)
 80010d0:	e0bffd45 	stb	r2,-11(fp)
				HID_init();                         //initialize data structures
 80010d4:	80017180 	call	8001718 <HID_init>
				devtable[addr].epinfo = hid_ep; //switch endpoint information structure
 80010d8:	e0fffe03 	ldbu	r3,-8(fp)
 80010dc:	008200b4 	movhi	r2,2050
 80010e0:	10a53004 	addi	r2,r2,-27456
 80010e4:	180690fa 	slli	r3,r3,3
 80010e8:	10c7883a 	add	r3,r2,r3
 80010ec:	008200b4 	movhi	r2,2050
 80010f0:	10a4dc04 	addi	r2,r2,-27792
 80010f4:	18800015 	stw	r2,0(r3)
				devtable[addr].epinfo[0].MaxPktSize = tmpbyte;
 80010f8:	e0fffe03 	ldbu	r3,-8(fp)
 80010fc:	008200b4 	movhi	r2,2050
 8001100:	10a53004 	addi	r2,r2,-27456
 8001104:	180690fa 	slli	r3,r3,3
 8001108:	10c5883a 	add	r2,r2,r3
 800110c:	10800017 	ldw	r2,0(r2)
 8001110:	e0fffd43 	ldbu	r3,-11(fp)
 8001114:	10c0008d 	sth	r3,2(r2)
				hid_device.interface =
						data_ptr->descr.interface.bInterfaceNumber;
 8001118:	e0bffa17 	ldw	r2,-24(fp)
 800111c:	10800083 	ldbu	r2,2(r2)
				devtable[addr].devclass = HID_M;                  //device class
				tmpbyte = devtable[addr].epinfo->MaxPktSize;
				HID_init();                         //initialize data structures
				devtable[addr].epinfo = hid_ep; //switch endpoint information structure
				devtable[addr].epinfo[0].MaxPktSize = tmpbyte;
				hid_device.interface =
 8001120:	d0a6f145 	stb	r2,-25659(gp)
						data_ptr->descr.interface.bInterfaceNumber;
				hid_device.addr = addr;
 8001124:	e0bffe03 	ldbu	r2,-8(fp)
 8001128:	d0a6f105 	stb	r2,-25660(gp)
				byte_ptr = byte_ptr + data_ptr->descr.config.bLength;
 800112c:	e0bffa17 	ldw	r2,-24(fp)
 8001130:	10800003 	ldbu	r2,0(r2)
 8001134:	10803fcc 	andi	r2,r2,255
 8001138:	e0fffb17 	ldw	r3,-20(fp)
 800113c:	1885883a 	add	r2,r3,r2
 8001140:	e0bffb15 	stw	r2,-20(fp)
				data_ptr = (USB_DESCR*) byte_ptr;
 8001144:	e0bffb17 	ldw	r2,-20(fp)
 8001148:	e0bffa15 	stw	r2,-24(fp)
				while (byte_ptr < bigbuf + total_length) {
 800114c:	00005b06 	br	80012bc <HIDMProbe+0x3b4>
					if (data_ptr->descr.config.bDescriptorType
 8001150:	e0bffa17 	ldw	r2,-24(fp)
 8001154:	10800043 	ldbu	r2,1(r2)
 8001158:	10803fcc 	andi	r2,r2,255
 800115c:	10800160 	cmpeqi	r2,r2,5
 8001160:	1000091e 	bne	r2,zero,8001188 <HIDMProbe+0x280>
							!= USB_DESCRIPTOR_ENDPOINT) { //skip to endpoint descriptor
						byte_ptr = byte_ptr + data_ptr->descr.config.bLength;
 8001164:	e0bffa17 	ldw	r2,-24(fp)
 8001168:	10800003 	ldbu	r2,0(r2)
 800116c:	10803fcc 	andi	r2,r2,255
 8001170:	e0fffb17 	ldw	r3,-20(fp)
 8001174:	1885883a 	add	r2,r3,r2
 8001178:	e0bffb15 	stw	r2,-20(fp)
						data_ptr = (USB_DESCR*) byte_ptr;
 800117c:	e0bffb17 	ldw	r2,-20(fp)
 8001180:	e0bffa15 	stw	r2,-24(fp)
 8001184:	00004d06 	br	80012bc <HIDMProbe+0x3b4>
					} else {
						/* fill endpoint information structure */
						devtable[addr].epinfo[1].epAddr =
 8001188:	e0fffe03 	ldbu	r3,-8(fp)
 800118c:	008200b4 	movhi	r2,2050
 8001190:	10a53004 	addi	r2,r2,-27456
 8001194:	180690fa 	slli	r3,r3,3
 8001198:	10c5883a 	add	r2,r2,r3
 800119c:	10800017 	ldw	r2,0(r2)
 80011a0:	10800204 	addi	r2,r2,8
								data_ptr->descr.endpoint.bEndpointAddress;
 80011a4:	e0fffa17 	ldw	r3,-24(fp)
 80011a8:	18c00083 	ldbu	r3,2(r3)
							!= USB_DESCRIPTOR_ENDPOINT) { //skip to endpoint descriptor
						byte_ptr = byte_ptr + data_ptr->descr.config.bLength;
						data_ptr = (USB_DESCR*) byte_ptr;
					} else {
						/* fill endpoint information structure */
						devtable[addr].epinfo[1].epAddr =
 80011ac:	10c00005 	stb	r3,0(r2)
								data_ptr->descr.endpoint.bEndpointAddress;
						devtable[addr].epinfo[1].Attr =
 80011b0:	e0fffe03 	ldbu	r3,-8(fp)
 80011b4:	008200b4 	movhi	r2,2050
 80011b8:	10a53004 	addi	r2,r2,-27456
 80011bc:	180690fa 	slli	r3,r3,3
 80011c0:	10c5883a 	add	r2,r2,r3
 80011c4:	10800017 	ldw	r2,0(r2)
 80011c8:	10800204 	addi	r2,r2,8
								data_ptr->descr.endpoint.bmAttributes;
 80011cc:	e0fffa17 	ldw	r3,-24(fp)
 80011d0:	18c000c3 	ldbu	r3,3(r3)
						data_ptr = (USB_DESCR*) byte_ptr;
					} else {
						/* fill endpoint information structure */
						devtable[addr].epinfo[1].epAddr =
								data_ptr->descr.endpoint.bEndpointAddress;
						devtable[addr].epinfo[1].Attr =
 80011d4:	10c00045 	stb	r3,1(r2)
								data_ptr->descr.endpoint.bmAttributes;
						devtable[addr].epinfo[1].MaxPktSize =
 80011d8:	e0fffe03 	ldbu	r3,-8(fp)
 80011dc:	008200b4 	movhi	r2,2050
 80011e0:	10a53004 	addi	r2,r2,-27456
 80011e4:	180690fa 	slli	r3,r3,3
 80011e8:	10c5883a 	add	r2,r2,r3
 80011ec:	10800017 	ldw	r2,0(r2)
 80011f0:	10800204 	addi	r2,r2,8
								data_ptr->descr.endpoint.wMaxPacketSize;
 80011f4:	e0fffa17 	ldw	r3,-24(fp)
 80011f8:	18c0010b 	ldhu	r3,4(r3)
						/* fill endpoint information structure */
						devtable[addr].epinfo[1].epAddr =
								data_ptr->descr.endpoint.bEndpointAddress;
						devtable[addr].epinfo[1].Attr =
								data_ptr->descr.endpoint.bmAttributes;
						devtable[addr].epinfo[1].MaxPktSize =
 80011fc:	10c0008d 	sth	r3,2(r2)
								data_ptr->descr.endpoint.wMaxPacketSize;
						devtable[addr].epinfo[1].Interval =
 8001200:	e0fffe03 	ldbu	r3,-8(fp)
 8001204:	008200b4 	movhi	r2,2050
 8001208:	10a53004 	addi	r2,r2,-27456
 800120c:	180690fa 	slli	r3,r3,3
 8001210:	10c5883a 	add	r2,r2,r3
 8001214:	10800017 	ldw	r2,0(r2)
 8001218:	10800204 	addi	r2,r2,8
								data_ptr->descr.endpoint.bInterval;
 800121c:	e0fffa17 	ldw	r3,-24(fp)
 8001220:	18c00183 	ldbu	r3,6(r3)
								data_ptr->descr.endpoint.bEndpointAddress;
						devtable[addr].epinfo[1].Attr =
								data_ptr->descr.endpoint.bmAttributes;
						devtable[addr].epinfo[1].MaxPktSize =
								data_ptr->descr.endpoint.wMaxPacketSize;
						devtable[addr].epinfo[1].Interval =
 8001224:	10c00105 	stb	r3,4(r2)
								data_ptr->descr.endpoint.bInterval;
						// devtable[ addr ].epinfo[ 1 ].rcvToggle = bmRCVTOG0;
						/* configure device */
						rcode = XferSetConf(addr, 0, confvalue); //set configuration
 8001228:	e0fffe03 	ldbu	r3,-8(fp)
 800122c:	e0bffc43 	ldbu	r2,-15(fp)
 8001230:	d8000415 	stw	zero,16(sp)
 8001234:	d8000315 	stw	zero,12(sp)
 8001238:	d8000215 	stw	zero,8(sp)
 800123c:	d8000115 	stw	zero,4(sp)
 8001240:	d8800015 	stw	r2,0(sp)
 8001244:	01c00244 	movi	r7,9
 8001248:	000d883a 	mov	r6,zero
 800124c:	000b883a 	mov	r5,zero
 8001250:	1809883a 	mov	r4,r3
 8001254:	80020600 	call	8002060 <XferCtrlReq>
 8001258:	e0bffc05 	stb	r2,-16(fp)
						if (rcode) {   //error handling
 800125c:	e0bffc03 	ldbu	r2,-16(fp)
 8001260:	10000226 	beq	r2,zero,800126c <HIDMProbe+0x364>
							return (FALSE);
 8001264:	0005883a 	mov	r2,zero
 8001268:	00002406 	br	80012fc <HIDMProbe+0x3f4>
						}
						rcode = XferSetProto(addr, 0, hid_device.interface,
 800126c:	e0fffe03 	ldbu	r3,-8(fp)
 8001270:	d0a6f143 	ldbu	r2,-25659(gp)
 8001274:	10803fcc 	andi	r2,r2,255
 8001278:	d8000415 	stw	zero,16(sp)
 800127c:	d8000315 	stw	zero,12(sp)
 8001280:	d8800215 	stw	r2,8(sp)
 8001284:	d8000115 	stw	zero,4(sp)
 8001288:	d8000015 	stw	zero,0(sp)
 800128c:	01c002c4 	movi	r7,11
 8001290:	01800844 	movi	r6,33
 8001294:	000b883a 	mov	r5,zero
 8001298:	1809883a 	mov	r4,r3
 800129c:	80020600 	call	8002060 <XferCtrlReq>
 80012a0:	e0bffc05 	stb	r2,-16(fp)
								BOOT_PROTOCOL);
						if (rcode) {   //error handling
 80012a4:	e0bffc03 	ldbu	r2,-16(fp)
 80012a8:	10000226 	beq	r2,zero,80012b4 <HIDMProbe+0x3ac>
							return (FALSE);
 80012ac:	0005883a 	mov	r2,zero
 80012b0:	00001206 	br	80012fc <HIDMProbe+0x3f4>
						} else {
							return (TRUE);
 80012b4:	00800044 	movi	r2,1
 80012b8:	00001006 	br	80012fc <HIDMProbe+0x3f4>
				hid_device.interface =
						data_ptr->descr.interface.bInterfaceNumber;
				hid_device.addr = addr;
				byte_ptr = byte_ptr + data_ptr->descr.config.bLength;
				data_ptr = (USB_DESCR*) byte_ptr;
				while (byte_ptr < bigbuf + total_length) {
 80012bc:	e0fff90b 	ldhu	r3,-28(fp)
 80012c0:	008200b4 	movhi	r2,2050
 80012c4:	10a4f004 	addi	r2,r2,-27712
 80012c8:	1885883a 	add	r2,r3,r2
 80012cc:	e0fffb17 	ldw	r3,-20(fp)
 80012d0:	18bf9f36 	bltu	r3,r2,8001150 <__alt_data_end+0xfc001150>
			BYTE subclass = data_ptr->descr.interface.bInterfaceSubClass;
			BYTE protocol = data_ptr->descr.interface.bInterfaceProtocol;
			//printf("class %x, subclass %x, protocol %x,\n", class, subclass,
			//		protocol);
			//interface descriptor
			if (class == HID_INTF && subclass == BOOT_INTF_SUBCLASS
 80012d4:	00000206 	br	80012e0 <HIDMProbe+0x3d8>
						}
					}
				}   //while( byte_ptr....
			}   //if (Class matches
			else { //if class don't match; die on first interface. Not really correct
				return (FALSE);
 80012d8:	0005883a 	mov	r2,zero
 80012dc:	00000706 	br	80012fc <HIDMProbe+0x3f4>
	//printf("checking configuration value (length: %d): ",
	//		data_ptr->descr.config.wTotalLength);
	//for (int i = 0; i < data_ptr->descr.config.wTotalLength; i++) {
		//printf("%x ", (unsigned char) (bigbuf[i] & 0xff));
	//}
	while (byte_ptr < bigbuf + total_length) {
 80012e0:	e0fff90b 	ldhu	r3,-28(fp)
 80012e4:	008200b4 	movhi	r2,2050
 80012e8:	10a4f004 	addi	r2,r2,-27712
 80012ec:	1885883a 	add	r2,r3,r2
 80012f0:	e0fffb17 	ldw	r3,-20(fp)
 80012f4:	18bf4736 	bltu	r3,r2,8001014 <__alt_data_end+0xfc001014>
			else { //if class don't match; die on first interface. Not really correct
				return (FALSE);
			}
		} //else if( data_ptr->
	} // while( byte_ptr < &buf + total_length
	return (FALSE);
 80012f8:	0005883a 	mov	r2,zero
}
 80012fc:	e037883a 	mov	sp,fp
 8001300:	dfc00117 	ldw	ra,4(sp)
 8001304:	df000017 	ldw	fp,0(sp)
 8001308:	dec00204 	addi	sp,sp,8
 800130c:	f800283a 	ret

08001310 <HIDKProbe>:
/* HID Keyboard probe. Called from USB state machine.                           */
/* assumes configuration length is less than 256 bytes                          */
/* looks for Class:03, Subclass: 01, Protocol: 01 in interface descriptor       */
/* sets keyboard in boot protocol                                               */
/* assumes single configuration, single endpoint, and interface configuration 0 */
BOOL HIDKProbe(BYTE addr, DWORD flags) {
 8001310:	defff204 	addi	sp,sp,-56
 8001314:	dfc00d15 	stw	ra,52(sp)
 8001318:	df000c15 	stw	fp,48(sp)
 800131c:	df000c04 	addi	fp,sp,48
 8001320:	2005883a 	mov	r2,r4
 8001324:	e17fff15 	stw	r5,-4(fp)
 8001328:	e0bffe05 	stb	r2,-8(fp)
	BYTE tmpbyte;
	BYTE rcode;
	BYTE confvalue;
	WORD total_length;
	USB_DESCR* data_ptr = (USB_DESCR *) &bigbuf;
 800132c:	008200b4 	movhi	r2,2050
 8001330:	10a4f004 	addi	r2,r2,-27712
 8001334:	e0bffa15 	stw	r2,-24(fp)
	BYTE* byte_ptr = bigbuf;
 8001338:	008200b4 	movhi	r2,2050
 800133c:	10a4f004 	addi	r2,r2,-27712
 8001340:	e0bffb15 	stw	r2,-20(fp)
	rcode = XferGetConfDescr(addr, 0, CONF_DESCR_LEN, 0, bigbuf); //get configuration descriptor
 8001344:	e0fffe03 	ldbu	r3,-8(fp)
 8001348:	008200b4 	movhi	r2,2050
 800134c:	10a4f004 	addi	r2,r2,-27712
 8001350:	d8800415 	stw	r2,16(sp)
 8001354:	00800244 	movi	r2,9
 8001358:	d8800315 	stw	r2,12(sp)
 800135c:	d8000215 	stw	zero,8(sp)
 8001360:	00800084 	movi	r2,2
 8001364:	d8800115 	stw	r2,4(sp)
 8001368:	d8000015 	stw	zero,0(sp)
 800136c:	01c00184 	movi	r7,6
 8001370:	01802004 	movi	r6,128
 8001374:	000b883a 	mov	r5,zero
 8001378:	1809883a 	mov	r4,r3
 800137c:	80020600 	call	8002060 <XferCtrlReq>
 8001380:	e0bffc05 	stb	r2,-16(fp)
	if (rcode) {   //error handling           
 8001384:	e0bffc03 	ldbu	r2,-16(fp)
 8001388:	10000226 	beq	r2,zero,8001394 <HIDKProbe+0x84>
		return (FALSE);
 800138c:	0005883a 	mov	r2,zero
 8001390:	0000dc06 	br	8001704 <HIDKProbe+0x3f4>
	}
	if (data_ptr->descr.config.wTotalLength > 256) {
 8001394:	e0bffa17 	ldw	r2,-24(fp)
 8001398:	1080008b 	ldhu	r2,2(r2)
 800139c:	10bfffcc 	andi	r2,r2,65535
 80013a0:	10804070 	cmpltui	r2,r2,257
 80013a4:	1000031e 	bne	r2,zero,80013b4 <HIDKProbe+0xa4>
		total_length = 256;
 80013a8:	00804004 	movi	r2,256
 80013ac:	e0bff90d 	sth	r2,-28(fp)
 80013b0:	00000306 	br	80013c0 <HIDKProbe+0xb0>
	} else {
		total_length = data_ptr->descr.config.wTotalLength;
 80013b4:	e0bffa17 	ldw	r2,-24(fp)
 80013b8:	1080008b 	ldhu	r2,2(r2)
 80013bc:	e0bff90d 	sth	r2,-28(fp)
	}
	rcode = XferGetConfDescr(addr, 0, total_length, 0, bigbuf); //get the whole configuration
 80013c0:	e13ffe03 	ldbu	r4,-8(fp)
 80013c4:	e0fff90b 	ldhu	r3,-28(fp)
 80013c8:	008200b4 	movhi	r2,2050
 80013cc:	10a4f004 	addi	r2,r2,-27712
 80013d0:	d8800415 	stw	r2,16(sp)
 80013d4:	d8c00315 	stw	r3,12(sp)
 80013d8:	d8000215 	stw	zero,8(sp)
 80013dc:	00800084 	movi	r2,2
 80013e0:	d8800115 	stw	r2,4(sp)
 80013e4:	d8000015 	stw	zero,0(sp)
 80013e8:	01c00184 	movi	r7,6
 80013ec:	01802004 	movi	r6,128
 80013f0:	000b883a 	mov	r5,zero
 80013f4:	80020600 	call	8002060 <XferCtrlReq>
 80013f8:	e0bffc05 	stb	r2,-16(fp)
	if (rcode) {   //error handling
 80013fc:	e0bffc03 	ldbu	r2,-16(fp)
 8001400:	10000226 	beq	r2,zero,800140c <HIDKProbe+0xfc>
		return (FALSE);
 8001404:	0005883a 	mov	r2,zero
 8001408:	0000be06 	br	8001704 <HIDKProbe+0x3f4>
	}
	confvalue = data_ptr->descr.config.bConfigurationValue; //save configuration value to use later
 800140c:	e0bffa17 	ldw	r2,-24(fp)
 8001410:	10800143 	ldbu	r2,5(r2)
 8001414:	e0bffc45 	stb	r2,-15(fp)
	while (byte_ptr < bigbuf + total_length) {             //parse configuration
 8001418:	0000b306 	br	80016e8 <HIDKProbe+0x3d8>
		if (data_ptr->descr.config.bDescriptorType != USB_DESCRIPTOR_INTERFACE) { //skip to the next descriptor
 800141c:	e0bffa17 	ldw	r2,-24(fp)
 8001420:	10800043 	ldbu	r2,1(r2)
 8001424:	10803fcc 	andi	r2,r2,255
 8001428:	10800120 	cmpeqi	r2,r2,4
 800142c:	1000091e 	bne	r2,zero,8001454 <HIDKProbe+0x144>
			byte_ptr = byte_ptr + data_ptr->descr.config.bLength;
 8001430:	e0bffa17 	ldw	r2,-24(fp)
 8001434:	10800003 	ldbu	r2,0(r2)
 8001438:	10803fcc 	andi	r2,r2,255
 800143c:	e0fffb17 	ldw	r3,-20(fp)
 8001440:	1885883a 	add	r2,r3,r2
 8001444:	e0bffb15 	stw	r2,-20(fp)
			data_ptr = (USB_DESCR*) byte_ptr;
 8001448:	e0bffb17 	ldw	r2,-20(fp)
 800144c:	e0bffa15 	stw	r2,-24(fp)
 8001450:	0000a506 	br	80016e8 <HIDKProbe+0x3d8>
		} // if( data_ptr->descr.config.bDescriptorType != USB_DESCRIPTOR_INTERFACE
		else {
			//printf("starting interface parsing at byte location %d\n",
			//		data_ptr->descr.config.bLength);
			BYTE class = data_ptr->descr.interface.bInterfaceClass;
 8001454:	e0bffa17 	ldw	r2,-24(fp)
 8001458:	10800143 	ldbu	r2,5(r2)
 800145c:	e0bffc85 	stb	r2,-14(fp)
			BYTE subclass = data_ptr->descr.interface.bInterfaceSubClass;
 8001460:	e0bffa17 	ldw	r2,-24(fp)
 8001464:	10800183 	ldbu	r2,6(r2)
 8001468:	e0bffcc5 	stb	r2,-13(fp)
			BYTE protocol = data_ptr->descr.interface.bInterfaceProtocol;
 800146c:	e0bffa17 	ldw	r2,-24(fp)
 8001470:	108001c3 	ldbu	r2,7(r2)
 8001474:	e0bffd05 	stb	r2,-12(fp)
			//printf("class %x, subclass %x, protocol %x,\n", class, subclass,
			//		protocol);
			//interface descriptor
			if (class == HID_INTF && subclass == BOOT_INTF_SUBCLASS
 8001478:	e0bffc83 	ldbu	r2,-14(fp)
 800147c:	108000d8 	cmpnei	r2,r2,3
 8001480:	1000971e 	bne	r2,zero,80016e0 <HIDKProbe+0x3d0>
 8001484:	e0bffcc3 	ldbu	r2,-13(fp)
 8001488:	10800058 	cmpnei	r2,r2,1
 800148c:	1000941e 	bne	r2,zero,80016e0 <HIDKProbe+0x3d0>
					&& protocol == HID_PROTOCOL_KEYBOARD) {
 8001490:	e0bffd03 	ldbu	r2,-12(fp)
 8001494:	10800058 	cmpnei	r2,r2,1
 8001498:	1000911e 	bne	r2,zero,80016e0 <HIDKProbe+0x3d0>
				//detected a keyboard
				devtable[addr].devclass = HID_K;             //fill device class
 800149c:	e0fffe03 	ldbu	r3,-8(fp)
 80014a0:	008200b4 	movhi	r2,2050
 80014a4:	10a53004 	addi	r2,r2,-27456
 80014a8:	180690fa 	slli	r3,r3,3
 80014ac:	10c5883a 	add	r2,r2,r3
 80014b0:	10800104 	addi	r2,r2,4
 80014b4:	00c00044 	movi	r3,1
 80014b8:	10c00005 	stb	r3,0(r2)
				tmpbyte = devtable[addr].epinfo->MaxPktSize; //save max.packet size
 80014bc:	e0fffe03 	ldbu	r3,-8(fp)
 80014c0:	008200b4 	movhi	r2,2050
 80014c4:	10a53004 	addi	r2,r2,-27456
 80014c8:	180690fa 	slli	r3,r3,3
 80014cc:	10c5883a 	add	r2,r2,r3
 80014d0:	10800017 	ldw	r2,0(r2)
 80014d4:	1080008b 	ldhu	r2,2(r2)
 80014d8:	e0bffd45 	stb	r2,-11(fp)
				HID_init();                         //initialize data structures
 80014dc:	80017180 	call	8001718 <HID_init>
				devtable[addr].epinfo = hid_ep; //switch endpoint information structure
 80014e0:	e0fffe03 	ldbu	r3,-8(fp)
 80014e4:	008200b4 	movhi	r2,2050
 80014e8:	10a53004 	addi	r2,r2,-27456
 80014ec:	180690fa 	slli	r3,r3,3
 80014f0:	10c7883a 	add	r3,r2,r3
 80014f4:	008200b4 	movhi	r2,2050
 80014f8:	10a4dc04 	addi	r2,r2,-27792
 80014fc:	18800015 	stw	r2,0(r3)
				devtable[addr].epinfo[0].MaxPktSize = tmpbyte; //fill in max.packet size
 8001500:	e0fffe03 	ldbu	r3,-8(fp)
 8001504:	008200b4 	movhi	r2,2050
 8001508:	10a53004 	addi	r2,r2,-27456
 800150c:	180690fa 	slli	r3,r3,3
 8001510:	10c5883a 	add	r2,r2,r3
 8001514:	10800017 	ldw	r2,0(r2)
 8001518:	e0fffd43 	ldbu	r3,-11(fp)
 800151c:	10c0008d 	sth	r3,2(r2)
				hid_device.interface =
						data_ptr->descr.interface.bInterfaceNumber; //fill in interface number to be used in HID requests
 8001520:	e0bffa17 	ldw	r2,-24(fp)
 8001524:	10800083 	ldbu	r2,2(r2)
				devtable[addr].devclass = HID_K;             //fill device class
				tmpbyte = devtable[addr].epinfo->MaxPktSize; //save max.packet size
				HID_init();                         //initialize data structures
				devtable[addr].epinfo = hid_ep; //switch endpoint information structure
				devtable[addr].epinfo[0].MaxPktSize = tmpbyte; //fill in max.packet size
				hid_device.interface =
 8001528:	d0a6f145 	stb	r2,-25659(gp)
						data_ptr->descr.interface.bInterfaceNumber; //fill in interface number to be used in HID requests
				hid_device.addr = addr;                        //fill in address
 800152c:	e0bffe03 	ldbu	r2,-8(fp)
 8001530:	d0a6f105 	stb	r2,-25660(gp)
				byte_ptr = byte_ptr + data_ptr->descr.config.bLength; //skip to the next descriptor
 8001534:	e0bffa17 	ldw	r2,-24(fp)
 8001538:	10800003 	ldbu	r2,0(r2)
 800153c:	10803fcc 	andi	r2,r2,255
 8001540:	e0fffb17 	ldw	r3,-20(fp)
 8001544:	1885883a 	add	r2,r3,r2
 8001548:	e0bffb15 	stw	r2,-20(fp)
				data_ptr = (USB_DESCR*) byte_ptr;
 800154c:	e0bffb17 	ldw	r2,-20(fp)
 8001550:	e0bffa15 	stw	r2,-24(fp)
				while (byte_ptr < bigbuf + total_length) {
 8001554:	00005b06 	br	80016c4 <HIDKProbe+0x3b4>
					if (data_ptr->descr.config.bDescriptorType
 8001558:	e0bffa17 	ldw	r2,-24(fp)
 800155c:	10800043 	ldbu	r2,1(r2)
 8001560:	10803fcc 	andi	r2,r2,255
 8001564:	10800160 	cmpeqi	r2,r2,5
 8001568:	1000091e 	bne	r2,zero,8001590 <HIDKProbe+0x280>
							!= USB_DESCRIPTOR_ENDPOINT) { //skip to endpoint descriptor
						byte_ptr = byte_ptr + data_ptr->descr.config.bLength;
 800156c:	e0bffa17 	ldw	r2,-24(fp)
 8001570:	10800003 	ldbu	r2,0(r2)
 8001574:	10803fcc 	andi	r2,r2,255
 8001578:	e0fffb17 	ldw	r3,-20(fp)
 800157c:	1885883a 	add	r2,r3,r2
 8001580:	e0bffb15 	stw	r2,-20(fp)
						data_ptr = (USB_DESCR*) byte_ptr;
 8001584:	e0bffb17 	ldw	r2,-20(fp)
 8001588:	e0bffa15 	stw	r2,-24(fp)
 800158c:	00004d06 	br	80016c4 <HIDKProbe+0x3b4>
					} else {
						/* fill endpoint information structure */
						devtable[addr].epinfo[1].epAddr =
 8001590:	e0fffe03 	ldbu	r3,-8(fp)
 8001594:	008200b4 	movhi	r2,2050
 8001598:	10a53004 	addi	r2,r2,-27456
 800159c:	180690fa 	slli	r3,r3,3
 80015a0:	10c5883a 	add	r2,r2,r3
 80015a4:	10800017 	ldw	r2,0(r2)
 80015a8:	10800204 	addi	r2,r2,8
								data_ptr->descr.endpoint.bEndpointAddress;
 80015ac:	e0fffa17 	ldw	r3,-24(fp)
 80015b0:	18c00083 	ldbu	r3,2(r3)
							!= USB_DESCRIPTOR_ENDPOINT) { //skip to endpoint descriptor
						byte_ptr = byte_ptr + data_ptr->descr.config.bLength;
						data_ptr = (USB_DESCR*) byte_ptr;
					} else {
						/* fill endpoint information structure */
						devtable[addr].epinfo[1].epAddr =
 80015b4:	10c00005 	stb	r3,0(r2)
								data_ptr->descr.endpoint.bEndpointAddress;
						devtable[addr].epinfo[1].Attr =
 80015b8:	e0fffe03 	ldbu	r3,-8(fp)
 80015bc:	008200b4 	movhi	r2,2050
 80015c0:	10a53004 	addi	r2,r2,-27456
 80015c4:	180690fa 	slli	r3,r3,3
 80015c8:	10c5883a 	add	r2,r2,r3
 80015cc:	10800017 	ldw	r2,0(r2)
 80015d0:	10800204 	addi	r2,r2,8
								data_ptr->descr.endpoint.bmAttributes;
 80015d4:	e0fffa17 	ldw	r3,-24(fp)
 80015d8:	18c000c3 	ldbu	r3,3(r3)
						data_ptr = (USB_DESCR*) byte_ptr;
					} else {
						/* fill endpoint information structure */
						devtable[addr].epinfo[1].epAddr =
								data_ptr->descr.endpoint.bEndpointAddress;
						devtable[addr].epinfo[1].Attr =
 80015dc:	10c00045 	stb	r3,1(r2)
								data_ptr->descr.endpoint.bmAttributes;
						devtable[addr].epinfo[1].MaxPktSize =
 80015e0:	e0fffe03 	ldbu	r3,-8(fp)
 80015e4:	008200b4 	movhi	r2,2050
 80015e8:	10a53004 	addi	r2,r2,-27456
 80015ec:	180690fa 	slli	r3,r3,3
 80015f0:	10c5883a 	add	r2,r2,r3
 80015f4:	10800017 	ldw	r2,0(r2)
 80015f8:	10800204 	addi	r2,r2,8
								data_ptr->descr.endpoint.wMaxPacketSize;
 80015fc:	e0fffa17 	ldw	r3,-24(fp)
 8001600:	18c0010b 	ldhu	r3,4(r3)
						/* fill endpoint information structure */
						devtable[addr].epinfo[1].epAddr =
								data_ptr->descr.endpoint.bEndpointAddress;
						devtable[addr].epinfo[1].Attr =
								data_ptr->descr.endpoint.bmAttributes;
						devtable[addr].epinfo[1].MaxPktSize =
 8001604:	10c0008d 	sth	r3,2(r2)
								data_ptr->descr.endpoint.wMaxPacketSize;
						devtable[addr].epinfo[1].Interval =
 8001608:	e0fffe03 	ldbu	r3,-8(fp)
 800160c:	008200b4 	movhi	r2,2050
 8001610:	10a53004 	addi	r2,r2,-27456
 8001614:	180690fa 	slli	r3,r3,3
 8001618:	10c5883a 	add	r2,r2,r3
 800161c:	10800017 	ldw	r2,0(r2)
 8001620:	10800204 	addi	r2,r2,8
								data_ptr->descr.endpoint.bInterval;
 8001624:	e0fffa17 	ldw	r3,-24(fp)
 8001628:	18c00183 	ldbu	r3,6(r3)
								data_ptr->descr.endpoint.bEndpointAddress;
						devtable[addr].epinfo[1].Attr =
								data_ptr->descr.endpoint.bmAttributes;
						devtable[addr].epinfo[1].MaxPktSize =
								data_ptr->descr.endpoint.wMaxPacketSize;
						devtable[addr].epinfo[1].Interval =
 800162c:	10c00105 	stb	r3,4(r2)
								data_ptr->descr.endpoint.bInterval;
						/* configure device */
						rcode = XferSetConf(addr, 0, confvalue); //set configuration
 8001630:	e0fffe03 	ldbu	r3,-8(fp)
 8001634:	e0bffc43 	ldbu	r2,-15(fp)
 8001638:	d8000415 	stw	zero,16(sp)
 800163c:	d8000315 	stw	zero,12(sp)
 8001640:	d8000215 	stw	zero,8(sp)
 8001644:	d8000115 	stw	zero,4(sp)
 8001648:	d8800015 	stw	r2,0(sp)
 800164c:	01c00244 	movi	r7,9
 8001650:	000d883a 	mov	r6,zero
 8001654:	000b883a 	mov	r5,zero
 8001658:	1809883a 	mov	r4,r3
 800165c:	80020600 	call	8002060 <XferCtrlReq>
 8001660:	e0bffc05 	stb	r2,-16(fp)
						if (rcode) {   //error handling
 8001664:	e0bffc03 	ldbu	r2,-16(fp)
 8001668:	10000226 	beq	r2,zero,8001674 <HIDKProbe+0x364>
							return (FALSE);
 800166c:	0005883a 	mov	r2,zero
 8001670:	00002406 	br	8001704 <HIDKProbe+0x3f4>
						}
						rcode = XferSetProto(addr, 0, hid_device.interface,
 8001674:	e0fffe03 	ldbu	r3,-8(fp)
 8001678:	d0a6f143 	ldbu	r2,-25659(gp)
 800167c:	10803fcc 	andi	r2,r2,255
 8001680:	d8000415 	stw	zero,16(sp)
 8001684:	d8000315 	stw	zero,12(sp)
 8001688:	d8800215 	stw	r2,8(sp)
 800168c:	d8000115 	stw	zero,4(sp)
 8001690:	d8000015 	stw	zero,0(sp)
 8001694:	01c002c4 	movi	r7,11
 8001698:	01800844 	movi	r6,33
 800169c:	000b883a 	mov	r5,zero
 80016a0:	1809883a 	mov	r4,r3
 80016a4:	80020600 	call	8002060 <XferCtrlReq>
 80016a8:	e0bffc05 	stb	r2,-16(fp)
								BOOT_PROTOCOL);
						if (rcode) {   //error handling
 80016ac:	e0bffc03 	ldbu	r2,-16(fp)
 80016b0:	10000226 	beq	r2,zero,80016bc <HIDKProbe+0x3ac>
							return (FALSE);
 80016b4:	0005883a 	mov	r2,zero
 80016b8:	00001206 	br	8001704 <HIDKProbe+0x3f4>
						} else {
							return (TRUE);
 80016bc:	00800044 	movi	r2,1
 80016c0:	00001006 	br	8001704 <HIDKProbe+0x3f4>
				hid_device.interface =
						data_ptr->descr.interface.bInterfaceNumber; //fill in interface number to be used in HID requests
				hid_device.addr = addr;                        //fill in address
				byte_ptr = byte_ptr + data_ptr->descr.config.bLength; //skip to the next descriptor
				data_ptr = (USB_DESCR*) byte_ptr;
				while (byte_ptr < bigbuf + total_length) {
 80016c4:	e0fff90b 	ldhu	r3,-28(fp)
 80016c8:	008200b4 	movhi	r2,2050
 80016cc:	10a4f004 	addi	r2,r2,-27712
 80016d0:	1885883a 	add	r2,r3,r2
 80016d4:	e0fffb17 	ldw	r3,-20(fp)
 80016d8:	18bf9f36 	bltu	r3,r2,8001558 <__alt_data_end+0xfc001558>
			BYTE subclass = data_ptr->descr.interface.bInterfaceSubClass;
			BYTE protocol = data_ptr->descr.interface.bInterfaceProtocol;
			//printf("class %x, subclass %x, protocol %x,\n", class, subclass,
			//		protocol);
			//interface descriptor
			if (class == HID_INTF && subclass == BOOT_INTF_SUBCLASS
 80016dc:	00000206 	br	80016e8 <HIDKProbe+0x3d8>
						}
					}
				}   //while( byte_ptr....
			}   //if (Class matches
			else { //if class don't match; stop processing after first interface. Not really correct
				return (FALSE);
 80016e0:	0005883a 	mov	r2,zero
 80016e4:	00000706 	br	8001704 <HIDKProbe+0x3f4>
	rcode = XferGetConfDescr(addr, 0, total_length, 0, bigbuf); //get the whole configuration
	if (rcode) {   //error handling
		return (FALSE);
	}
	confvalue = data_ptr->descr.config.bConfigurationValue; //save configuration value to use later
	while (byte_ptr < bigbuf + total_length) {             //parse configuration
 80016e8:	e0fff90b 	ldhu	r3,-28(fp)
 80016ec:	008200b4 	movhi	r2,2050
 80016f0:	10a4f004 	addi	r2,r2,-27712
 80016f4:	1885883a 	add	r2,r3,r2
 80016f8:	e0fffb17 	ldw	r3,-20(fp)
 80016fc:	18bf4736 	bltu	r3,r2,800141c <__alt_data_end+0xfc00141c>
			else { //if class don't match; stop processing after first interface. Not really correct
				return (FALSE);
			}
		} //else if( data_ptr->
	} // while( byte_ptr < &buf + total_length
	return (FALSE);
 8001700:	0005883a 	mov	r2,zero
}
 8001704:	e037883a 	mov	sp,fp
 8001708:	dfc00117 	ldw	ra,4(sp)
 800170c:	df000017 	ldw	fp,0(sp)
 8001710:	dec00204 	addi	sp,sp,8
 8001714:	f800283a 	ret

08001718 <HID_init>:
/* HID data structures initialization */
void HID_init(void) {
 8001718:	deffff04 	addi	sp,sp,-4
 800171c:	df000015 	stw	fp,0(sp)
 8001720:	d839883a 	mov	fp,sp
	hid_ep[1].sndToggle = bmSNDTOG0;
 8001724:	008200b4 	movhi	r2,2050
 8001728:	10a4dc04 	addi	r2,r2,-27792
 800172c:	00c01004 	movi	r3,64
 8001730:	10c00345 	stb	r3,13(r2)
	hid_ep[1].rcvToggle = bmRCVTOG0;
 8001734:	008200b4 	movhi	r2,2050
 8001738:	10a4dc04 	addi	r2,r2,-27792
 800173c:	00c00404 	movi	r3,16
 8001740:	10c00385 	stb	r3,14(r2)
}
 8001744:	0001883a 	nop
 8001748:	e037883a 	mov	sp,fp
 800174c:	df000017 	ldw	fp,0(sp)
 8001750:	dec00104 	addi	sp,sp,4
 8001754:	f800283a 	ret

08001758 <mousePoll>:
/* poll boot mouse */
BYTE mousePoll(BOOT_MOUSE_REPORT* buf) {
 8001758:	defffb04 	addi	sp,sp,-20
 800175c:	dfc00415 	stw	ra,16(sp)
 8001760:	df000315 	stw	fp,12(sp)
 8001764:	df000304 	addi	fp,sp,12
 8001768:	e13fff15 	stw	r4,-4(fp)
	BYTE rcode;
	MAXreg_wr( rPERADDR, hid_device.addr);    //set peripheral address
 800176c:	d0a6f103 	ldbu	r2,-25660(gp)
 8001770:	10803fcc 	andi	r2,r2,255
 8001774:	100b883a 	mov	r5,r2
 8001778:	01003804 	movi	r4,224
 800177c:	80019340 	call	8001934 <MAXreg_wr>
	rcode = XferInTransfer(hid_device.addr, 1, 8, (BYTE*) buf,
 8001780:	d0a6f103 	ldbu	r2,-25660(gp)
 8001784:	11003fcc 	andi	r4,r2,255
			devtable[hid_device.addr].epinfo[1].MaxPktSize);
 8001788:	d0a6f103 	ldbu	r2,-25660(gp)
 800178c:	10c03fcc 	andi	r3,r2,255
 8001790:	008200b4 	movhi	r2,2050
 8001794:	10a53004 	addi	r2,r2,-27456
 8001798:	180690fa 	slli	r3,r3,3
 800179c:	10c5883a 	add	r2,r2,r3
 80017a0:	10800017 	ldw	r2,0(r2)
 80017a4:	10800204 	addi	r2,r2,8
 80017a8:	1080008b 	ldhu	r2,2(r2)
}
/* poll boot mouse */
BYTE mousePoll(BOOT_MOUSE_REPORT* buf) {
	BYTE rcode;
	MAXreg_wr( rPERADDR, hid_device.addr);    //set peripheral address
	rcode = XferInTransfer(hid_device.addr, 1, 8, (BYTE*) buf,
 80017ac:	10803fcc 	andi	r2,r2,255
 80017b0:	d8800015 	stw	r2,0(sp)
 80017b4:	e1ffff17 	ldw	r7,-4(fp)
 80017b8:	01800204 	movi	r6,8
 80017bc:	01400044 	movi	r5,1
 80017c0:	80024840 	call	8002484 <XferInTransfer>
 80017c4:	e0bffe05 	stb	r2,-8(fp)
			devtable[hid_device.addr].epinfo[1].MaxPktSize);
	return (rcode);
 80017c8:	e0bffe03 	ldbu	r2,-8(fp)
}
 80017cc:	e037883a 	mov	sp,fp
 80017d0:	dfc00117 	ldw	ra,4(sp)
 80017d4:	df000017 	ldw	fp,0(sp)
 80017d8:	dec00204 	addi	sp,sp,8
 80017dc:	f800283a 	ret

080017e0 <kbdPoll>:
/* poll boot keyboard */
BYTE kbdPoll(BOOT_KBD_REPORT* buf) {
 80017e0:	defffb04 	addi	sp,sp,-20
 80017e4:	dfc00415 	stw	ra,16(sp)
 80017e8:	df000315 	stw	fp,12(sp)
 80017ec:	df000304 	addi	fp,sp,12
 80017f0:	e13fff15 	stw	r4,-4(fp)
	BYTE rcode;
	MAXreg_wr( rPERADDR, hid_device.addr);    //set peripheral address
 80017f4:	d0a6f103 	ldbu	r2,-25660(gp)
 80017f8:	10803fcc 	andi	r2,r2,255
 80017fc:	100b883a 	mov	r5,r2
 8001800:	01003804 	movi	r4,224
 8001804:	80019340 	call	8001934 <MAXreg_wr>
	rcode = XferInTransfer(hid_device.addr, 1, 8, (BYTE*) buf,
 8001808:	d0a6f103 	ldbu	r2,-25660(gp)
 800180c:	11003fcc 	andi	r4,r2,255
			devtable[hid_device.addr].epinfo[1].MaxPktSize);
 8001810:	d0a6f103 	ldbu	r2,-25660(gp)
 8001814:	10c03fcc 	andi	r3,r2,255
 8001818:	008200b4 	movhi	r2,2050
 800181c:	10a53004 	addi	r2,r2,-27456
 8001820:	180690fa 	slli	r3,r3,3
 8001824:	10c5883a 	add	r2,r2,r3
 8001828:	10800017 	ldw	r2,0(r2)
 800182c:	10800204 	addi	r2,r2,8
 8001830:	1080008b 	ldhu	r2,2(r2)
}
/* poll boot keyboard */
BYTE kbdPoll(BOOT_KBD_REPORT* buf) {
	BYTE rcode;
	MAXreg_wr( rPERADDR, hid_device.addr);    //set peripheral address
	rcode = XferInTransfer(hid_device.addr, 1, 8, (BYTE*) buf,
 8001834:	10803fcc 	andi	r2,r2,255
 8001838:	d8800015 	stw	r2,0(sp)
 800183c:	e1ffff17 	ldw	r7,-4(fp)
 8001840:	01800204 	movi	r6,8
 8001844:	01400044 	movi	r5,1
 8001848:	80024840 	call	8002484 <XferInTransfer>
 800184c:	e0bffe05 	stb	r2,-8(fp)
			devtable[hid_device.addr].epinfo[1].MaxPktSize);
	return (rcode);
 8001850:	e0bffe03 	ldbu	r2,-8(fp)
}
 8001854:	e037883a 	mov	sp,fp
 8001858:	dfc00117 	ldw	ra,4(sp)
 800185c:	df000017 	ldw	fp,0(sp)
 8001860:	dec00204 	addi	sp,sp,8
 8001864:	f800283a 	ret

08001868 <HIDMEventHandler>:
BOOL HIDMEventHandler(BYTE address, BYTE event, void *data, DWORD size) {
 8001868:	defffb04 	addi	sp,sp,-20
 800186c:	df000415 	stw	fp,16(sp)
 8001870:	df000404 	addi	fp,sp,16
 8001874:	2007883a 	mov	r3,r4
 8001878:	2805883a 	mov	r2,r5
 800187c:	e1bffe15 	stw	r6,-8(fp)
 8001880:	e1ffff15 	stw	r7,-4(fp)
 8001884:	e0fffc05 	stb	r3,-16(fp)
 8001888:	e0bffd05 	stb	r2,-12(fp)
	return (FALSE);
 800188c:	0005883a 	mov	r2,zero
}
 8001890:	e037883a 	mov	sp,fp
 8001894:	df000017 	ldw	fp,0(sp)
 8001898:	dec00104 	addi	sp,sp,4
 800189c:	f800283a 	ret

080018a0 <HIDKEventHandler>:
BOOL HIDKEventHandler(BYTE address, BYTE event, void *data, DWORD size) {
 80018a0:	defffb04 	addi	sp,sp,-20
 80018a4:	df000415 	stw	fp,16(sp)
 80018a8:	df000404 	addi	fp,sp,16
 80018ac:	2007883a 	mov	r3,r4
 80018b0:	2805883a 	mov	r2,r5
 80018b4:	e1bffe15 	stw	r6,-8(fp)
 80018b8:	e1ffff15 	stw	r7,-4(fp)
 80018bc:	e0fffc05 	stb	r3,-16(fp)
 80018c0:	e0bffd05 	stb	r2,-12(fp)
	return (FALSE);
 80018c4:	0005883a 	mov	r2,zero
}
 80018c8:	e037883a 	mov	sp,fp
 80018cc:	df000017 	ldw	fp,0(sp)
 80018d0:	dec00104 	addi	sp,sp,4
 80018d4:	f800283a 	ret

080018d8 <SPI_init>:
//variables and data structures
//External variables
extern BYTE usb_task_state;

/* Functions    */
void SPI_init(BYTE sync_mode, BYTE bus_mode, BYTE smp_phase) {
 80018d8:	defffc04 	addi	sp,sp,-16
 80018dc:	df000315 	stw	fp,12(sp)
 80018e0:	df000304 	addi	fp,sp,12
 80018e4:	2807883a 	mov	r3,r5
 80018e8:	3005883a 	mov	r2,r6
 80018ec:	e13ffd05 	stb	r4,-12(fp)
 80018f0:	e0fffe05 	stb	r3,-8(fp)
 80018f4:	e0bfff05 	stb	r2,-4(fp)
	//Don't need to initialize SPI port, already ready to go with BSP
}
 80018f8:	0001883a 	nop
 80018fc:	e037883a 	mov	sp,fp
 8001900:	df000017 	ldw	fp,0(sp)
 8001904:	dec00104 	addi	sp,sp,4
 8001908:	f800283a 	ret

0800190c <SPI_wr>:

//writes single byte to MAX3421E via SPI, simultanously reads status register and returns it
BYTE SPI_wr(BYTE data) {
 800190c:	defffe04 	addi	sp,sp,-8
 8001910:	df000115 	stw	fp,4(sp)
 8001914:	df000104 	addi	fp,sp,4
 8001918:	2005883a 	mov	r2,r4
 800191c:	e0bfff05 	stb	r2,-4(fp)
	//This function is never used by the code, so you do not need to fill it in
}
 8001920:	0001883a 	nop
 8001924:	e037883a 	mov	sp,fp
 8001928:	df000017 	ldw	fp,0(sp)
 800192c:	dec00104 	addi	sp,sp,4
 8001930:	f800283a 	ret

08001934 <MAXreg_wr>:
//writes register to MAX3421E via SPI
void MAXreg_wr(BYTE reg, BYTE val) {
 8001934:	defff704 	addi	sp,sp,-36
 8001938:	dfc00815 	stw	ra,32(sp)
 800193c:	df000715 	stw	fp,28(sp)
 8001940:	df000704 	addi	fp,sp,28
 8001944:	2007883a 	mov	r3,r4
 8001948:	2805883a 	mov	r2,r5
 800194c:	e0fffe05 	stb	r3,-8(fp)
 8001950:	e0bfff05 	stb	r2,-4(fp)
	//psuedocode:
	//select MAX3421E (may not be necessary if you are using SPI peripheral)
	//write reg + 2 via SPI
	//write val via SPI
	alt_u8 arr [2]= {reg+2, val};
 8001954:	e0bffe03 	ldbu	r2,-8(fp)
 8001958:	10800084 	addi	r2,r2,2
 800195c:	e0bffd05 	stb	r2,-12(fp)
 8001960:	e0bfff03 	ldbu	r2,-4(fp)
 8001964:	e0bffd45 	stb	r2,-11(fp)
	int i = alt_avalon_spi_command(0x00000180,
 8001968:	e0bffd04 	addi	r2,fp,-12
 800196c:	d8000215 	stw	zero,8(sp)
 8001970:	d8000115 	stw	zero,4(sp)
 8001974:	d8000015 	stw	zero,0(sp)
 8001978:	100f883a 	mov	r7,r2
 800197c:	01800084 	movi	r6,2
 8001980:	000b883a 	mov	r5,zero
 8001984:	01006004 	movi	r4,384
 8001988:	8013e140 	call	8013e14 <alt_avalon_spi_command>
 800198c:	e0bffc15 	stw	r2,-16(fp)
					 0,
					 0,
					 0);
	//read return code from SPI peripheral (see Intel documentation) 
	//if return code < 0 print an error
	if (i < 0)
 8001990:	e0bffc17 	ldw	r2,-16(fp)
 8001994:	1000030e 	bge	r2,zero,80019a4 <MAXreg_wr+0x70>
		printf("error");
 8001998:	01020074 	movhi	r4,2049
 800199c:	21161e04 	addi	r4,r4,22648
 80019a0:	8003cf80 	call	8003cf8 <printf>
	//deselect MAX3421E (may not be necessary if you are using SPI peripheral)


}
 80019a4:	0001883a 	nop
 80019a8:	e037883a 	mov	sp,fp
 80019ac:	dfc00117 	ldw	ra,4(sp)
 80019b0:	df000017 	ldw	fp,0(sp)
 80019b4:	dec00204 	addi	sp,sp,8
 80019b8:	f800283a 	ret

080019bc <MAXbytes_wr>:
//multiple-byte write
//returns a pointer to a memory position after last written
BYTE* MAXbytes_wr(BYTE reg, BYTE nbytes, BYTE* data) {
 80019bc:	defff304 	addi	sp,sp,-52
 80019c0:	dfc00c15 	stw	ra,48(sp)
 80019c4:	df000b15 	stw	fp,44(sp)
 80019c8:	dc000a15 	stw	r16,40(sp)
 80019cc:	df000b04 	addi	fp,sp,44
 80019d0:	201b883a 	mov	r13,r4
 80019d4:	2809883a 	mov	r4,r5
 80019d8:	e1bffe15 	stw	r6,-8(fp)
 80019dc:	e37ffc05 	stb	r13,-16(fp)
 80019e0:	e13ffd05 	stb	r4,-12(fp)
 80019e4:	d809883a 	mov	r4,sp
 80019e8:	2021883a 	mov	r16,r4
	//psuedocode:
	//select MAX3421E (may not be necessary if you are using SPI peripheral)
	//write reg + 2 via SPI
	BYTE arr [nbytes + 1];
 80019ec:	e13ffd03 	ldbu	r4,-12(fp)
 80019f0:	21000044 	addi	r4,r4,1
 80019f4:	217fffc4 	addi	r5,r4,-1
 80019f8:	e17ff915 	stw	r5,-28(fp)
 80019fc:	200b883a 	mov	r5,r4
 8001a00:	2817883a 	mov	r11,r5
 8001a04:	0019883a 	mov	r12,zero
 8001a08:	580ad77a 	srli	r5,r11,29
 8001a0c:	601090fa 	slli	r8,r12,3
 8001a10:	2a10b03a 	or	r8,r5,r8
 8001a14:	580e90fa 	slli	r7,r11,3
 8001a18:	200b883a 	mov	r5,r4
 8001a1c:	2813883a 	mov	r9,r5
 8001a20:	0015883a 	mov	r10,zero
 8001a24:	480ad77a 	srli	r5,r9,29
 8001a28:	500690fa 	slli	r3,r10,3
 8001a2c:	28c6b03a 	or	r3,r5,r3
 8001a30:	480490fa 	slli	r2,r9,3
 8001a34:	2005883a 	mov	r2,r4
 8001a38:	108000c4 	addi	r2,r2,3
 8001a3c:	1004d0ba 	srli	r2,r2,2
 8001a40:	1085883a 	add	r2,r2,r2
 8001a44:	1085883a 	add	r2,r2,r2
 8001a48:	d8b7c83a 	sub	sp,sp,r2
 8001a4c:	d8800304 	addi	r2,sp,12
 8001a50:	1005883a 	mov	r2,r2
 8001a54:	e0bffa15 	stw	r2,-24(fp)
	arr[0] = reg+2;
 8001a58:	e0bffc03 	ldbu	r2,-16(fp)
 8001a5c:	10800084 	addi	r2,r2,2
 8001a60:	1007883a 	mov	r3,r2
 8001a64:	e0bffa17 	ldw	r2,-24(fp)
 8001a68:	10c00005 	stb	r3,0(r2)
	for (int i = 0; i < nbytes; i++) {
 8001a6c:	e03ff815 	stw	zero,-32(fp)
 8001a70:	00000c06 	br	8001aa4 <MAXbytes_wr+0xe8>
		arr[i+1] = data[i];
 8001a74:	e0bff817 	ldw	r2,-32(fp)
 8001a78:	10800044 	addi	r2,r2,1
 8001a7c:	e0fff817 	ldw	r3,-32(fp)
 8001a80:	e13ffe17 	ldw	r4,-8(fp)
 8001a84:	20c7883a 	add	r3,r4,r3
 8001a88:	18c00003 	ldbu	r3,0(r3)
 8001a8c:	e13ffa17 	ldw	r4,-24(fp)
 8001a90:	2085883a 	add	r2,r4,r2
 8001a94:	10c00005 	stb	r3,0(r2)
	//psuedocode:
	//select MAX3421E (may not be necessary if you are using SPI peripheral)
	//write reg + 2 via SPI
	BYTE arr [nbytes + 1];
	arr[0] = reg+2;
	for (int i = 0; i < nbytes; i++) {
 8001a98:	e0bff817 	ldw	r2,-32(fp)
 8001a9c:	10800044 	addi	r2,r2,1
 8001aa0:	e0bff815 	stw	r2,-32(fp)
 8001aa4:	e0bffd03 	ldbu	r2,-12(fp)
 8001aa8:	e0fff817 	ldw	r3,-32(fp)
 8001aac:	18bff116 	blt	r3,r2,8001a74 <__alt_data_end+0xfc001a74>

	//write data[n] via SPI, where n goes from 0 to nbytes-1

		int count = alt_avalon_spi_command(0x00000180,
				 0,
				 nbytes+1,
 8001ab0:	e0bffd03 	ldbu	r2,-12(fp)
 8001ab4:	10800044 	addi	r2,r2,1
	}


	//write data[n] via SPI, where n goes from 0 to nbytes-1

		int count = alt_avalon_spi_command(0x00000180,
 8001ab8:	1007883a 	mov	r3,r2
				 0,
				 nbytes+1,
				 arr,
 8001abc:	e0bffa17 	ldw	r2,-24(fp)
	}


	//write data[n] via SPI, where n goes from 0 to nbytes-1

		int count = alt_avalon_spi_command(0x00000180,
 8001ac0:	d8000215 	stw	zero,8(sp)
 8001ac4:	d8000115 	stw	zero,4(sp)
 8001ac8:	d8000015 	stw	zero,0(sp)
 8001acc:	100f883a 	mov	r7,r2
 8001ad0:	180d883a 	mov	r6,r3
 8001ad4:	000b883a 	mov	r5,zero
 8001ad8:	01006004 	movi	r4,384
 8001adc:	8013e140 	call	8013e14 <alt_avalon_spi_command>
 8001ae0:	e0bffb15 	stw	r2,-20(fp)
				 0,
				 0,
				 0);
	//read return code from SPI peripheral (see Intel documentation) 
	//if return code < 0  print an error
	if (count < 0)
 8001ae4:	e0bffb17 	ldw	r2,-20(fp)
 8001ae8:	1000030e 	bge	r2,zero,8001af8 <MAXbytes_wr+0x13c>
		printf("error");
 8001aec:	01020074 	movhi	r4,2049
 8001af0:	21161e04 	addi	r4,r4,22648
 8001af4:	8003cf80 	call	8003cf8 <printf>
	//deselect MAX3421E (may not be necessary if you are using SPI peripheral)
	//return (data + nbytes);
	return data + nbytes;
 8001af8:	e0bffd03 	ldbu	r2,-12(fp)
 8001afc:	e0fffe17 	ldw	r3,-8(fp)
 8001b00:	1885883a 	add	r2,r3,r2
 8001b04:	8037883a 	mov	sp,r16
}
 8001b08:	e6ffff04 	addi	sp,fp,-4
 8001b0c:	dfc00217 	ldw	ra,8(sp)
 8001b10:	df000117 	ldw	fp,4(sp)
 8001b14:	dc000017 	ldw	r16,0(sp)
 8001b18:	dec00304 	addi	sp,sp,12
 8001b1c:	f800283a 	ret

08001b20 <MAXreg_rd>:

//reads register from MAX3421E via SPI
BYTE MAXreg_rd(BYTE reg) {
 8001b20:	defff804 	addi	sp,sp,-32
 8001b24:	dfc00715 	stw	ra,28(sp)
 8001b28:	df000615 	stw	fp,24(sp)
 8001b2c:	df000604 	addi	fp,sp,24
 8001b30:	2005883a 	mov	r2,r4
 8001b34:	e0bfff05 	stb	r2,-4(fp)
	//select MAX3421E (may not be necessary if you are using SPI peripheral)
	//write reg via SPI

	//read val via SPI
	BYTE val;
	int count = alt_avalon_spi_command(0x00000180,
 8001b38:	e0ffff04 	addi	r3,fp,-4
 8001b3c:	d8000215 	stw	zero,8(sp)
 8001b40:	e0bffe04 	addi	r2,fp,-8
 8001b44:	d8800115 	stw	r2,4(sp)
 8001b48:	00800044 	movi	r2,1
 8001b4c:	d8800015 	stw	r2,0(sp)
 8001b50:	180f883a 	mov	r7,r3
 8001b54:	01800044 	movi	r6,1
 8001b58:	000b883a 	mov	r5,zero
 8001b5c:	01006004 	movi	r4,384
 8001b60:	8013e140 	call	8013e14 <alt_avalon_spi_command>
 8001b64:	e0bffd15 	stw	r2,-12(fp)
			 1,
			 &val,
			 0);
	//read return code from SPI peripheral (see Intel documentation)
	//if return code < 0 print an error
	if (count < 0)
 8001b68:	e0bffd17 	ldw	r2,-12(fp)
 8001b6c:	1000030e 	bge	r2,zero,8001b7c <MAXreg_rd+0x5c>
		printf("error");
 8001b70:	01020074 	movhi	r4,2049
 8001b74:	21161e04 	addi	r4,r4,22648
 8001b78:	8003cf80 	call	8003cf8 <printf>
	//deselect MAX3421E (may not be necessary if you are using SPI peripheral)
	//return val
	return val;
 8001b7c:	e0bffe03 	ldbu	r2,-8(fp)
}
 8001b80:	e037883a 	mov	sp,fp
 8001b84:	dfc00117 	ldw	ra,4(sp)
 8001b88:	df000017 	ldw	fp,0(sp)
 8001b8c:	dec00204 	addi	sp,sp,8
 8001b90:	f800283a 	ret

08001b94 <MAXbytes_rd>:
//multiple-byte write
//returns a pointer to a memory position after last written
BYTE* MAXbytes_rd(BYTE reg, BYTE nbytes, BYTE* data) {
 8001b94:	defff704 	addi	sp,sp,-36
 8001b98:	dfc00815 	stw	ra,32(sp)
 8001b9c:	df000715 	stw	fp,28(sp)
 8001ba0:	df000704 	addi	fp,sp,28
 8001ba4:	2007883a 	mov	r3,r4
 8001ba8:	2805883a 	mov	r2,r5
 8001bac:	e1bfff15 	stw	r6,-4(fp)
 8001bb0:	e0fffd05 	stb	r3,-12(fp)
 8001bb4:	e0bffe05 	stb	r2,-8(fp)
	//psuedocode:
	//select MAX3421E (may not be necessary if you are using SPI peripheral)
	//write reg via SPI
	//read data[n] from SPI, where n goes from 0 to nbytes-1

	int count = alt_avalon_spi_command(0x00000180, 0, 1, &reg, nbytes, data, 0);
 8001bb8:	e0bffe03 	ldbu	r2,-8(fp)
 8001bbc:	e13ffd04 	addi	r4,fp,-12
 8001bc0:	d8000215 	stw	zero,8(sp)
 8001bc4:	e0ffff17 	ldw	r3,-4(fp)
 8001bc8:	d8c00115 	stw	r3,4(sp)
 8001bcc:	d8800015 	stw	r2,0(sp)
 8001bd0:	200f883a 	mov	r7,r4
 8001bd4:	01800044 	movi	r6,1
 8001bd8:	000b883a 	mov	r5,zero
 8001bdc:	01006004 	movi	r4,384
 8001be0:	8013e140 	call	8013e14 <alt_avalon_spi_command>
 8001be4:	e0bffc15 	stw	r2,-16(fp)
					 0);

	}*/
	//read return code from SPI peripheral (see Intel documentation)
	//if return code < 0 print an error
	if (count < 0)
 8001be8:	e0bffc17 	ldw	r2,-16(fp)
 8001bec:	1000030e 	bge	r2,zero,8001bfc <MAXbytes_rd+0x68>
		printf("error");
 8001bf0:	01020074 	movhi	r4,2049
 8001bf4:	21161e04 	addi	r4,r4,22648
 8001bf8:	8003cf80 	call	8003cf8 <printf>
	//deselect MAX3421E (may not be necessary if you are using SPI peripheral)
	//return (data + nbytes);
	return data + nbytes;
 8001bfc:	e0bffe03 	ldbu	r2,-8(fp)
 8001c00:	e0ffff17 	ldw	r3,-4(fp)
 8001c04:	1885883a 	add	r2,r3,r2
}
 8001c08:	e037883a 	mov	sp,fp
 8001c0c:	dfc00117 	ldw	ra,4(sp)
 8001c10:	df000017 	ldw	fp,0(sp)
 8001c14:	dec00204 	addi	sp,sp,8
 8001c18:	f800283a 	ret

08001c1c <MAX3421E_reset>:
/* reset MAX3421E using chip reset bit. SPI configuration is not affected   */
void MAX3421E_reset(void) {
 8001c1c:	defffd04 	addi	sp,sp,-12
 8001c20:	dfc00215 	stw	ra,8(sp)
 8001c24:	df000115 	stw	fp,4(sp)
 8001c28:	df000104 	addi	fp,sp,4
	//hardware reset, then software reset
	IOWR_ALTERA_AVALON_PIO_DATA(USB_RST_BASE, 0);
 8001c2c:	0007883a 	mov	r3,zero
 8001c30:	00804004 	movi	r2,256
 8001c34:	10c00035 	stwio	r3,0(r2)
	usleep(1000000);
 8001c38:	010003f4 	movhi	r4,15
 8001c3c:	21109004 	addi	r4,r4,16960
 8001c40:	801154c0 	call	801154c <usleep>
	IOWR_ALTERA_AVALON_PIO_DATA(USB_RST_BASE, 1);
 8001c44:	00c00044 	movi	r3,1
 8001c48:	00804004 	movi	r2,256
 8001c4c:	10c00035 	stwio	r3,0(r2)
	BYTE tmp = 0;
 8001c50:	e03fff05 	stb	zero,-4(fp)
	MAXreg_wr( rUSBCTL, bmCHIPRES);      //Chip reset. This stops the oscillator
 8001c54:	01400804 	movi	r5,32
 8001c58:	01001e04 	movi	r4,120
 8001c5c:	80019340 	call	8001934 <MAXreg_wr>
	MAXreg_wr( rUSBCTL, 0x00);                          //Remove the reset
 8001c60:	000b883a 	mov	r5,zero
 8001c64:	01001e04 	movi	r4,120
 8001c68:	80019340 	call	8001934 <MAXreg_wr>
	while (!(MAXreg_rd( rUSBIRQ) & bmOSCOKIRQ)) { //wait until the PLL stabilizes
 8001c6c:	00000806 	br	8001c90 <MAX3421E_reset+0x74>
		tmp++;                                      //timeout after 256 attempts
 8001c70:	e0bfff03 	ldbu	r2,-4(fp)
 8001c74:	10800044 	addi	r2,r2,1
 8001c78:	e0bfff05 	stb	r2,-4(fp)
		if (tmp == 0) {
 8001c7c:	e0bfff03 	ldbu	r2,-4(fp)
 8001c80:	1000031e 	bne	r2,zero,8001c90 <MAX3421E_reset+0x74>
			printf("reset timeout!");
 8001c84:	01020074 	movhi	r4,2049
 8001c88:	21162004 	addi	r4,r4,22656
 8001c8c:	8003cf80 	call	8003cf8 <printf>
	usleep(1000000);
	IOWR_ALTERA_AVALON_PIO_DATA(USB_RST_BASE, 1);
	BYTE tmp = 0;
	MAXreg_wr( rUSBCTL, bmCHIPRES);      //Chip reset. This stops the oscillator
	MAXreg_wr( rUSBCTL, 0x00);                          //Remove the reset
	while (!(MAXreg_rd( rUSBIRQ) & bmOSCOKIRQ)) { //wait until the PLL stabilizes
 8001c90:	01001a04 	movi	r4,104
 8001c94:	8001b200 	call	8001b20 <MAXreg_rd>
 8001c98:	10803fcc 	andi	r2,r2,255
 8001c9c:	1080004c 	andi	r2,r2,1
 8001ca0:	103ff326 	beq	r2,zero,8001c70 <__alt_data_end+0xfc001c70>
		tmp++;                                      //timeout after 256 attempts
		if (tmp == 0) {
			printf("reset timeout!");
		}
	}
}
 8001ca4:	0001883a 	nop
 8001ca8:	e037883a 	mov	sp,fp
 8001cac:	dfc00117 	ldw	ra,4(sp)
 8001cb0:	df000017 	ldw	fp,0(sp)
 8001cb4:	dec00204 	addi	sp,sp,8
 8001cb8:	f800283a 	ret

08001cbc <Vbus_power>:
/* turn USB power on/off                                                */
/* ON pin of VBUS switch (MAX4793 or similar) is connected to GPOUT7    */
/* OVERLOAD pin of Vbus switch is connected to GPIN7                    */
/* OVERLOAD state low. NO OVERLOAD or VBUS OFF state high.              */
BOOL Vbus_power(BOOL action) {
 8001cbc:	defffe04 	addi	sp,sp,-8
 8001cc0:	df000115 	stw	fp,4(sp)
 8001cc4:	df000104 	addi	fp,sp,4
 8001cc8:	e13fff15 	stw	r4,-4(fp)
	// power on/off successful
	return (1);
 8001ccc:	00800044 	movi	r2,1
}
 8001cd0:	e037883a 	mov	sp,fp
 8001cd4:	df000017 	ldw	fp,0(sp)
 8001cd8:	dec00104 	addi	sp,sp,4
 8001cdc:	f800283a 	ret

08001ce0 <MAX_busprobe>:

/* probe bus to determine device presense and speed */
void MAX_busprobe(void) {
 8001ce0:	defffd04 	addi	sp,sp,-12
 8001ce4:	dfc00215 	stw	ra,8(sp)
 8001ce8:	df000115 	stw	fp,4(sp)
 8001cec:	df000104 	addi	fp,sp,4
	BYTE bus_sample;

//  MAXreg_wr(rHCTL,bmSAMPLEBUS);
	bus_sample = MAXreg_rd( rHRSL);            //Get J,K status
 8001cf0:	01003e04 	movi	r4,248
 8001cf4:	8001b200 	call	8001b20 <MAXreg_rd>
 8001cf8:	e0bfff05 	stb	r2,-4(fp)
	bus_sample &= ( bmJSTATUS | bmKSTATUS);      //zero the rest of the byte
 8001cfc:	e0ffff03 	ldbu	r3,-4(fp)
 8001d00:	00bff004 	movi	r2,-64
 8001d04:	1884703a 	and	r2,r3,r2
 8001d08:	e0bfff05 	stb	r2,-4(fp)

	switch (bus_sample) {                   //start full-speed or low-speed host
 8001d0c:	e0bfff03 	ldbu	r2,-4(fp)
 8001d10:	10c01020 	cmpeqi	r3,r2,64
 8001d14:	1800221e 	bne	r3,zero,8001da0 <MAX_busprobe+0xc0>
 8001d18:	10c01048 	cmpgei	r3,r2,65
 8001d1c:	1800021e 	bne	r3,zero,8001d28 <MAX_busprobe+0x48>
 8001d20:	10003b26 	beq	r2,zero,8001e10 <MAX_busprobe+0x130>
			MAXreg_wr( rMODE, MODE_FS_HOST); //start full-speed host
			usb_task_state = ( USB_DETACHED_SUBSTATE_WAIT_FOR_DEVICE);
		}
		break;
	} //end switch( bus_sample )
}
 8001d24:	00004a06 	br	8001e50 <MAX_busprobe+0x170>

//  MAXreg_wr(rHCTL,bmSAMPLEBUS);
	bus_sample = MAXreg_rd( rHRSL);            //Get J,K status
	bus_sample &= ( bmJSTATUS | bmKSTATUS);      //zero the rest of the byte

	switch (bus_sample) {                   //start full-speed or low-speed host
 8001d28:	10c02020 	cmpeqi	r3,r2,128
 8001d2c:	1800031e 	bne	r3,zero,8001d3c <MAX_busprobe+0x5c>
 8001d30:	10803020 	cmpeqi	r2,r2,192
 8001d34:	1000331e 	bne	r2,zero,8001e04 <MAX_busprobe+0x124>
			MAXreg_wr( rMODE, MODE_FS_HOST); //start full-speed host
			usb_task_state = ( USB_DETACHED_SUBSTATE_WAIT_FOR_DEVICE);
		}
		break;
	} //end switch( bus_sample )
}
 8001d38:	00004506 	br	8001e50 <MAX_busprobe+0x170>
	bus_sample &= ( bmJSTATUS | bmKSTATUS);      //zero the rest of the byte

	switch (bus_sample) {                   //start full-speed or low-speed host
	case ( bmJSTATUS):
		/*kludgy*/
		if (usb_task_state != USB_ATTACHED_SUBSTATE_WAIT_RESET_COMPLETE) { //bus reset causes connection detect interrupt
 8001d3c:	d0a00303 	ldbu	r2,-32756(gp)
 8001d40:	10803fcc 	andi	r2,r2,255
 8001d44:	108004e0 	cmpeqi	r2,r2,19
 8001d48:	10003e1e 	bne	r2,zero,8001e44 <MAX_busprobe+0x164>
			if (!(MAXreg_rd( rMODE) & bmLOWSPEED)) {
 8001d4c:	01003604 	movi	r4,216
 8001d50:	8001b200 	call	8001b20 <MAXreg_rd>
 8001d54:	10803fcc 	andi	r2,r2,255
 8001d58:	1080008c 	andi	r2,r2,2
 8001d5c:	1000071e 	bne	r2,zero,8001d7c <MAX_busprobe+0x9c>
				MAXreg_wr( rMODE, MODE_FS_HOST);         //start full-speed host
 8001d60:	01403244 	movi	r5,201
 8001d64:	01003604 	movi	r4,216
 8001d68:	80019340 	call	8001934 <MAXreg_wr>
				printf("Starting in full speed\n");
 8001d6c:	01020074 	movhi	r4,2049
 8001d70:	21162404 	addi	r4,r4,22672
 8001d74:	8003e140 	call	8003e14 <puts>
 8001d78:	00000606 	br	8001d94 <MAX_busprobe+0xb4>
			} else {
				MAXreg_wr( rMODE, MODE_LS_HOST);    //start low-speed host
 8001d7c:	014032c4 	movi	r5,203
 8001d80:	01003604 	movi	r4,216
 8001d84:	80019340 	call	8001934 <MAXreg_wr>
				printf("Starting in low speed\n");
 8001d88:	01020074 	movhi	r4,2049
 8001d8c:	21162a04 	addi	r4,r4,22696
 8001d90:	8003e140 	call	8003e14 <puts>
			}
			usb_task_state = ( USB_STATE_ATTACHED); //signal usb state machine to start attachment sequence
 8001d94:	00800404 	movi	r2,16
 8001d98:	d0a00305 	stb	r2,-32756(gp)
		}
		break;
 8001d9c:	00002906 	br	8001e44 <MAX_busprobe+0x164>
	case ( bmKSTATUS):
		if (usb_task_state != USB_ATTACHED_SUBSTATE_WAIT_RESET_COMPLETE) { //bus reset causes connection detect interrupt
 8001da0:	d0a00303 	ldbu	r2,-32756(gp)
 8001da4:	10803fcc 	andi	r2,r2,255
 8001da8:	108004e0 	cmpeqi	r2,r2,19
 8001dac:	1000271e 	bne	r2,zero,8001e4c <MAX_busprobe+0x16c>
			if (!(MAXreg_rd( rMODE) & bmLOWSPEED)) {
 8001db0:	01003604 	movi	r4,216
 8001db4:	8001b200 	call	8001b20 <MAXreg_rd>
 8001db8:	10803fcc 	andi	r2,r2,255
 8001dbc:	1080008c 	andi	r2,r2,2
 8001dc0:	1000071e 	bne	r2,zero,8001de0 <MAX_busprobe+0x100>
				MAXreg_wr( rMODE, MODE_LS_HOST);   //start low-speed host
 8001dc4:	014032c4 	movi	r5,203
 8001dc8:	01003604 	movi	r4,216
 8001dcc:	80019340 	call	8001934 <MAXreg_wr>
				printf("Starting in low speed\n");
 8001dd0:	01020074 	movhi	r4,2049
 8001dd4:	21162a04 	addi	r4,r4,22696
 8001dd8:	8003e140 	call	8003e14 <puts>
 8001ddc:	00000606 	br	8001df8 <MAX_busprobe+0x118>
			} else {
				MAXreg_wr( rMODE, MODE_FS_HOST);         //start full-speed host
 8001de0:	01403244 	movi	r5,201
 8001de4:	01003604 	movi	r4,216
 8001de8:	80019340 	call	8001934 <MAXreg_wr>
				printf("Starting in full speed\n");
 8001dec:	01020074 	movhi	r4,2049
 8001df0:	21162404 	addi	r4,r4,22672
 8001df4:	8003e140 	call	8003e14 <puts>
			}
			usb_task_state = ( USB_STATE_ATTACHED); //signal usb state machine to start attachment sequence
 8001df8:	00800404 	movi	r2,16
 8001dfc:	d0a00305 	stb	r2,-32756(gp)
		}
		break;
 8001e00:	00001206 	br	8001e4c <MAX_busprobe+0x16c>
	case ( bmSE1):              //illegal state
		usb_task_state = ( USB_DETACHED_SUBSTATE_ILLEGAL);
 8001e04:	00800104 	movi	r2,4
 8001e08:	d0a00305 	stb	r2,-32756(gp)
		break;
 8001e0c:	00001006 	br	8001e50 <MAX_busprobe+0x170>
	case ( bmSE0):              //disconnected state
		if (!((usb_task_state & USB_STATE_MASK) == USB_STATE_DETACHED)) //if we came here from other than detached state
 8001e10:	d0a00303 	ldbu	r2,-32756(gp)
 8001e14:	10803fcc 	andi	r2,r2,255
 8001e18:	10803c0c 	andi	r2,r2,240
 8001e1c:	10000326 	beq	r2,zero,8001e2c <MAX_busprobe+0x14c>
			usb_task_state = ( USB_DETACHED_SUBSTATE_INITIALIZE); //clear device data structures
 8001e20:	00800044 	movi	r2,1
 8001e24:	d0a00305 	stb	r2,-32756(gp)
		else {
			MAXreg_wr( rMODE, MODE_FS_HOST); //start full-speed host
			usb_task_state = ( USB_DETACHED_SUBSTATE_WAIT_FOR_DEVICE);
		}
		break;
 8001e28:	00000906 	br	8001e50 <MAX_busprobe+0x170>
		break;
	case ( bmSE0):              //disconnected state
		if (!((usb_task_state & USB_STATE_MASK) == USB_STATE_DETACHED)) //if we came here from other than detached state
			usb_task_state = ( USB_DETACHED_SUBSTATE_INITIALIZE); //clear device data structures
		else {
			MAXreg_wr( rMODE, MODE_FS_HOST); //start full-speed host
 8001e2c:	01403244 	movi	r5,201
 8001e30:	01003604 	movi	r4,216
 8001e34:	80019340 	call	8001934 <MAXreg_wr>
			usb_task_state = ( USB_DETACHED_SUBSTATE_WAIT_FOR_DEVICE);
 8001e38:	008000c4 	movi	r2,3
 8001e3c:	d0a00305 	stb	r2,-32756(gp)
		}
		break;
 8001e40:	00000306 	br	8001e50 <MAX_busprobe+0x170>
				MAXreg_wr( rMODE, MODE_LS_HOST);    //start low-speed host
				printf("Starting in low speed\n");
			}
			usb_task_state = ( USB_STATE_ATTACHED); //signal usb state machine to start attachment sequence
		}
		break;
 8001e44:	0001883a 	nop
 8001e48:	00000106 	br	8001e50 <MAX_busprobe+0x170>
				MAXreg_wr( rMODE, MODE_FS_HOST);         //start full-speed host
				printf("Starting in full speed\n");
			}
			usb_task_state = ( USB_STATE_ATTACHED); //signal usb state machine to start attachment sequence
		}
		break;
 8001e4c:	0001883a 	nop
			MAXreg_wr( rMODE, MODE_FS_HOST); //start full-speed host
			usb_task_state = ( USB_DETACHED_SUBSTATE_WAIT_FOR_DEVICE);
		}
		break;
	} //end switch( bus_sample )
}
 8001e50:	0001883a 	nop
 8001e54:	e037883a 	mov	sp,fp
 8001e58:	dfc00117 	ldw	ra,4(sp)
 8001e5c:	df000017 	ldw	fp,0(sp)
 8001e60:	dec00204 	addi	sp,sp,8
 8001e64:	f800283a 	ret

08001e68 <MAX3421E_init>:
/* MAX3421E initialization after power-on   */
void MAX3421E_init(void) {
 8001e68:	defffe04 	addi	sp,sp,-8
 8001e6c:	dfc00115 	stw	ra,4(sp)
 8001e70:	df000015 	stw	fp,0(sp)
 8001e74:	d839883a 	mov	fp,sp
	/* Configure full-duplex SPI, interrupt pulse   */
	MAXreg_wr( rPINCTL, (bmFDUPSPI + bmINTLEVEL + bmGPXB)); //Full-duplex SPI, level interrupt, GPX
 8001e78:	01400684 	movi	r5,26
 8001e7c:	01002204 	movi	r4,136
 8001e80:	80019340 	call	8001934 <MAXreg_wr>
	MAX3421E_reset();                                //stop/start the oscillator
 8001e84:	8001c1c0 	call	8001c1c <MAX3421E_reset>
	/* configure power switch   */
	Vbus_power( OFF);                                      //turn Vbus power off
 8001e88:	0009883a 	mov	r4,zero
 8001e8c:	8001cbc0 	call	8001cbc <Vbus_power>
	MAXreg_wr( rGPINIEN, bmGPINIEN7); //enable interrupt on GPIN7 (power switch overload flag)
 8001e90:	01402004 	movi	r5,128
 8001e94:	01002e04 	movi	r4,184
 8001e98:	80019340 	call	8001934 <MAXreg_wr>
	Vbus_power( ON);
 8001e9c:	01000044 	movi	r4,1
 8001ea0:	8001cbc0 	call	8001cbc <Vbus_power>
	/* configure host operation */
	MAXreg_wr( rMODE, bmDPPULLDN | bmDMPULLDN | bmHOST | bmSEPIRQ); // set pull-downs, SOF, Host, Separate GPIN IRQ on GPX
 8001ea4:	01403444 	movi	r5,209
 8001ea8:	01003604 	movi	r4,216
 8001eac:	80019340 	call	8001934 <MAXreg_wr>
	//MAXreg_wr( rHIEN, bmFRAMEIE|bmCONDETIE|bmBUSEVENTIE );                      // enable SOF, connection detection, bus event IRQs
	MAXreg_wr( rHIEN, bmCONDETIE);                        //connection detection
 8001eb0:	01400804 	movi	r5,32
 8001eb4:	01003404 	movi	r4,208
 8001eb8:	80019340 	call	8001934 <MAXreg_wr>
	/* HXFRDNIRQ is checked in Dispatch packet function */
	MAXreg_wr(rHCTL, bmSAMPLEBUS);        // update the JSTATUS and KSTATUS bits
 8001ebc:	01400104 	movi	r5,4
 8001ec0:	01003a04 	movi	r4,232
 8001ec4:	80019340 	call	8001934 <MAXreg_wr>
	MAX_busprobe();                             //check if anything is connected
 8001ec8:	8001ce00 	call	8001ce0 <MAX_busprobe>
	MAXreg_wr( rHIRQ, bmCONDETIRQ); //clear connection detect interrupt                 
 8001ecc:	01400804 	movi	r5,32
 8001ed0:	01003204 	movi	r4,200
 8001ed4:	80019340 	call	8001934 <MAXreg_wr>
	MAXreg_wr( rCPUCTL, 0x01);                            //enable interrupt pin
 8001ed8:	01400044 	movi	r5,1
 8001edc:	01002004 	movi	r4,128
 8001ee0:	80019340 	call	8001934 <MAXreg_wr>
}
 8001ee4:	0001883a 	nop
 8001ee8:	e037883a 	mov	sp,fp
 8001eec:	dfc00117 	ldw	ra,4(sp)
 8001ef0:	df000017 	ldw	fp,0(sp)
 8001ef4:	dec00204 	addi	sp,sp,8
 8001ef8:	f800283a 	ret

08001efc <MAX3421E_Task>:

/* MAX3421 state change task and interrupt handler */
void MAX3421E_Task(void) {
 8001efc:	defffe04 	addi	sp,sp,-8
 8001f00:	dfc00115 	stw	ra,4(sp)
 8001f04:	df000015 	stw	fp,0(sp)
 8001f08:	d839883a 	mov	fp,sp
	if ( IORD_ALTERA_AVALON_PIO_DATA(USB_IRQ_BASE) == 0) {
 8001f0c:	00802004 	movi	r2,128
 8001f10:	10800037 	ldwio	r2,0(r2)
 8001f14:	1000041e 	bne	r2,zero,8001f28 <MAX3421E_Task+0x2c>
		printf("MAX interrupt\n\r");
 8001f18:	01020074 	movhi	r4,2049
 8001f1c:	21163004 	addi	r4,r4,22720
 8001f20:	8003cf80 	call	8003cf8 <printf>
		MaxIntHandler();
 8001f24:	8001f600 	call	8001f60 <MaxIntHandler>
	}
	if ( IORD_ALTERA_AVALON_PIO_DATA(USB_GPX_BASE) == 1) {
 8001f28:	00802404 	movi	r2,144
 8001f2c:	10800037 	ldwio	r2,0(r2)
 8001f30:	10800058 	cmpnei	r2,r2,1
 8001f34:	1000041e 	bne	r2,zero,8001f48 <MAX3421E_Task+0x4c>
		printf("GPX interrupt\n\r");
 8001f38:	01020074 	movhi	r4,2049
 8001f3c:	21163404 	addi	r4,r4,22736
 8001f40:	8003cf80 	call	8003cf8 <printf>
		MaxGpxHandler();
 8001f44:	800202c0 	call	800202c <MaxGpxHandler>
	}
}
 8001f48:	0001883a 	nop
 8001f4c:	e037883a 	mov	sp,fp
 8001f50:	dfc00117 	ldw	ra,4(sp)
 8001f54:	df000017 	ldw	fp,0(sp)
 8001f58:	dec00204 	addi	sp,sp,8
 8001f5c:	f800283a 	ret

08001f60 <MaxIntHandler>:

void MaxIntHandler(void) {
 8001f60:	defffd04 	addi	sp,sp,-12
 8001f64:	dfc00215 	stw	ra,8(sp)
 8001f68:	df000115 	stw	fp,4(sp)
 8001f6c:	df000104 	addi	fp,sp,4
	BYTE HIRQ;
	BYTE HIRQ_sendback = 0x00;
 8001f70:	e03fff05 	stb	zero,-4(fp)
	HIRQ = MAXreg_rd( rHIRQ);                  //determine interrupt source
 8001f74:	01003204 	movi	r4,200
 8001f78:	8001b200 	call	8001b20 <MAXreg_rd>
 8001f7c:	e0bfff45 	stb	r2,-3(fp)
	printf("IRQ: %x\n", HIRQ);
 8001f80:	e0bfff43 	ldbu	r2,-3(fp)
 8001f84:	100b883a 	mov	r5,r2
 8001f88:	01020074 	movhi	r4,2049
 8001f8c:	21163804 	addi	r4,r4,22752
 8001f90:	8003cf80 	call	8003cf8 <printf>
	if (HIRQ & bmFRAMEIRQ) {                   //->1ms SOF interrupt handler
 8001f94:	e0bfff43 	ldbu	r2,-3(fp)
 8001f98:	1080100c 	andi	r2,r2,64
 8001f9c:	10000326 	beq	r2,zero,8001fac <MaxIntHandler+0x4c>
		HIRQ_sendback |= bmFRAMEIRQ;
 8001fa0:	e0bfff03 	ldbu	r2,-4(fp)
 8001fa4:	10801014 	ori	r2,r2,64
 8001fa8:	e0bfff05 	stb	r2,-4(fp)
	}                   //end FRAMEIRQ handling

	if (HIRQ & bmCONDETIRQ) {
 8001fac:	e0bfff43 	ldbu	r2,-3(fp)
 8001fb0:	1080080c 	andi	r2,r2,32
 8001fb4:	10000426 	beq	r2,zero,8001fc8 <MaxIntHandler+0x68>
		MAX_busprobe();
 8001fb8:	8001ce00 	call	8001ce0 <MAX_busprobe>
		HIRQ_sendback |= bmCONDETIRQ;      //set sendback to 1 to clear register
 8001fbc:	e0bfff03 	ldbu	r2,-4(fp)
 8001fc0:	10800814 	ori	r2,r2,32
 8001fc4:	e0bfff05 	stb	r2,-4(fp)
	}
	if (HIRQ & bmSNDBAVIRQ) //if the send buffer is clear (previous transfer completed without issue)
 8001fc8:	e0bfff43 	ldbu	r2,-3(fp)
 8001fcc:	1080020c 	andi	r2,r2,8
 8001fd0:	10000326 	beq	r2,zero,8001fe0 <MaxIntHandler+0x80>
	{
		MAXreg_wr(rSNDBC, 0x00);//clear the send buffer (not really necessary, but clears interrupt)
 8001fd4:	000b883a 	mov	r5,zero
 8001fd8:	01000e04 	movi	r4,56
 8001fdc:	80019340 	call	8001934 <MAXreg_wr>
	}
	if (HIRQ & bmBUSEVENTIRQ) {           //bus event is either reset or suspend
 8001fe0:	e0bfff43 	ldbu	r2,-3(fp)
 8001fe4:	1080004c 	andi	r2,r2,1
 8001fe8:	10000626 	beq	r2,zero,8002004 <MaxIntHandler+0xa4>
		usb_task_state++;                       //advance USB task state machine
 8001fec:	d0a00303 	ldbu	r2,-32756(gp)
 8001ff0:	10800044 	addi	r2,r2,1
 8001ff4:	d0a00305 	stb	r2,-32756(gp)
		HIRQ_sendback |= bmBUSEVENTIRQ;
 8001ff8:	e0bfff03 	ldbu	r2,-4(fp)
 8001ffc:	10800054 	ori	r2,r2,1
 8002000:	e0bfff05 	stb	r2,-4(fp)
	}
	/* End HIRQ interrupts handling, clear serviced IRQs    */
	MAXreg_wr( rHIRQ, HIRQ_sendback); //write '1' to CONDETIRQ to ack bus state change
 8002004:	e0bfff03 	ldbu	r2,-4(fp)
 8002008:	100b883a 	mov	r5,r2
 800200c:	01003204 	movi	r4,200
 8002010:	80019340 	call	8001934 <MAXreg_wr>
}
 8002014:	0001883a 	nop
 8002018:	e037883a 	mov	sp,fp
 800201c:	dfc00117 	ldw	ra,4(sp)
 8002020:	df000017 	ldw	fp,0(sp)
 8002024:	dec00204 	addi	sp,sp,8
 8002028:	f800283a 	ret

0800202c <MaxGpxHandler>:

void MaxGpxHandler(void) {
 800202c:	defffd04 	addi	sp,sp,-12
 8002030:	dfc00215 	stw	ra,8(sp)
 8002034:	df000115 	stw	fp,4(sp)
 8002038:	df000104 	addi	fp,sp,4
	BYTE GPINIRQ;
	GPINIRQ = MAXreg_rd( rGPINIRQ);            //read both IRQ registers
 800203c:	01002c04 	movi	r4,176
 8002040:	8001b200 	call	8001b20 <MAXreg_rd>
 8002044:	e0bfff05 	stb	r2,-4(fp)
}
 8002048:	0001883a 	nop
 800204c:	e037883a 	mov	sp,fp
 8002050:	dfc00117 	ldw	ra,4(sp)
 8002054:	df000017 	ldw	fp,0(sp)
 8002058:	dec00204 	addi	sp,sp,8
 800205c:	f800283a 	ret

08002060 <XferCtrlReq>:
/* depending on request. Actual requests are defined as macros                                                                                      */
/* return codes:                */
/* 00       =   success         */
/* 01-0f    =   non-zero HRSLT  */
BYTE XferCtrlReq( BYTE addr, BYTE ep, BYTE bmReqType, BYTE bRequest, BYTE wValLo, BYTE wValHi, WORD wInd, WORD nbytes, BYTE* dataptr )
{
 8002060:	defff104 	addi	sp,sp,-60
 8002064:	dfc00e15 	stw	ra,56(sp)
 8002068:	df000d15 	stw	fp,52(sp)
 800206c:	df000d04 	addi	fp,sp,52
 8002070:	2015883a 	mov	r10,r4
 8002074:	2813883a 	mov	r9,r5
 8002078:	3011883a 	mov	r8,r6
 800207c:	380d883a 	mov	r6,r7
 8002080:	e1400217 	ldw	r5,8(fp)
 8002084:	e1000317 	ldw	r4,12(fp)
 8002088:	e0c00417 	ldw	r3,16(fp)
 800208c:	e0800517 	ldw	r2,20(fp)
 8002090:	e2bff805 	stb	r10,-32(fp)
 8002094:	e27ff905 	stb	r9,-28(fp)
 8002098:	e23ffa05 	stb	r8,-24(fp)
 800209c:	e1bffb05 	stb	r6,-20(fp)
 80020a0:	e17ffc05 	stb	r5,-16(fp)
 80020a4:	e13ffd05 	stb	r4,-12(fp)
 80020a8:	e0fffe0d 	sth	r3,-8(fp)
 80020ac:	e0bfff0d 	sth	r2,-4(fp)
 BOOL direction = FALSE;        //request direction, IN or OUT
 80020b0:	e03ff415 	stw	zero,-48(fp)
 BYTE datastage = 1; //request data stage present or absent
 80020b4:	00800044 	movi	r2,1
 80020b8:	e0bff505 	stb	r2,-44(fp)
 BYTE rcode;
 SETUP_PKT setup_pkt;
    if( dataptr == NULL ) {
 80020bc:	e0800617 	ldw	r2,24(fp)
 80020c0:	1000011e 	bne	r2,zero,80020c8 <XferCtrlReq+0x68>
        datastage = 0;
 80020c4:	e03ff505 	stb	zero,-44(fp)
    }
    MAXreg_wr( rPERADDR, addr );                    //set peripheral address
 80020c8:	e0bff803 	ldbu	r2,-32(fp)
 80020cc:	100b883a 	mov	r5,r2
 80020d0:	01003804 	movi	r4,224
 80020d4:	80019340 	call	8001934 <MAXreg_wr>
    /* fill in setup packet */
    if( bmReqType & 0x80 ) {
 80020d8:	e0bffa03 	ldbu	r2,-24(fp)
 80020dc:	10803fcc 	andi	r2,r2,255
 80020e0:	1080201c 	xori	r2,r2,128
 80020e4:	10bfe004 	addi	r2,r2,-128
 80020e8:	1000020e 	bge	r2,zero,80020f4 <XferCtrlReq+0x94>
        direction = TRUE;                   		//determine request direction
 80020ec:	00800044 	movi	r2,1
 80020f0:	e0bff415 	stw	r2,-48(fp)
    }
    /* fill in setup packet */
    setup_pkt.ReqType_u.bmRequestType = bmReqType;
 80020f4:	e0bffa03 	ldbu	r2,-24(fp)
 80020f8:	e0bff585 	stb	r2,-42(fp)
    setup_pkt.bRequest = bRequest;
 80020fc:	e0bffb03 	ldbu	r2,-20(fp)
 8002100:	e0bff5c5 	stb	r2,-41(fp)
    setup_pkt.wVal_u.wValueLo = wValLo;
 8002104:	e0bffc03 	ldbu	r2,-16(fp)
 8002108:	e0bff605 	stb	r2,-40(fp)
    setup_pkt.wVal_u.wValueHi = wValHi;
 800210c:	e0bffd03 	ldbu	r2,-12(fp)
 8002110:	e0bff645 	stb	r2,-39(fp)
    setup_pkt.wIndex = wInd;
 8002114:	e0bffe0b 	ldhu	r2,-8(fp)
 8002118:	e0bff68d 	sth	r2,-38(fp)
    setup_pkt.wLength = nbytes;
 800211c:	e0bfff0b 	ldhu	r2,-4(fp)
 8002120:	e0bff70d 	sth	r2,-36(fp)
    MAXbytes_wr( rSUDFIFO, 8, (BYTE *)&setup_pkt );     //transfer to setup packet FIFO
 8002124:	e0bff584 	addi	r2,fp,-42
 8002128:	100d883a 	mov	r6,r2
 800212c:	01400204 	movi	r5,8
 8002130:	01000804 	movi	r4,32
 8002134:	80019bc0 	call	80019bc <MAXbytes_wr>
    rcode = XferDispatchPkt( tokSETUP, ep );            //dispatch packet
 8002138:	e0bff903 	ldbu	r2,-28(fp)
 800213c:	100b883a 	mov	r5,r2
 8002140:	01000404 	movi	r4,16
 8002144:	80023080 	call	8002308 <XferDispatchPkt>
 8002148:	e0bff545 	stb	r2,-43(fp)
    if( rcode ) {                                       //return HRSLT if not zero
 800214c:	e0bff543 	ldbu	r2,-43(fp)
 8002150:	10000226 	beq	r2,zero,800215c <XferCtrlReq+0xfc>
        return( rcode );
 8002154:	e0bff543 	ldbu	r2,-43(fp)
 8002158:	00000f06 	br	8002198 <XferCtrlReq+0x138>
    }
    rcode = ctrl_xfers[ datastage ]( addr, ep, nbytes, dataptr, direction );    //call data stage or no data stage transfer
 800215c:	e0bff503 	ldbu	r2,-44(fp)
 8002160:	1085883a 	add	r2,r2,r2
 8002164:	1087883a 	add	r3,r2,r2
 8002168:	d0a00104 	addi	r2,gp,-32764
 800216c:	1885883a 	add	r2,r3,r2
 8002170:	10800017 	ldw	r2,0(r2)
 8002174:	e13ff803 	ldbu	r4,-32(fp)
 8002178:	e17ff903 	ldbu	r5,-28(fp)
 800217c:	e1bfff0b 	ldhu	r6,-4(fp)
 8002180:	e0fff417 	ldw	r3,-48(fp)
 8002184:	d8c00015 	stw	r3,0(sp)
 8002188:	e1c00617 	ldw	r7,24(fp)
 800218c:	103ee83a 	callr	r2
 8002190:	e0bff545 	stb	r2,-43(fp)
    return( rcode );
 8002194:	e0bff543 	ldbu	r2,-43(fp)
}
 8002198:	e037883a 	mov	sp,fp
 800219c:	dfc00117 	ldw	ra,4(sp)
 80021a0:	df000017 	ldw	fp,0(sp)
 80021a4:	dec00204 	addi	sp,sp,8
 80021a8:	f800283a 	ret

080021ac <XferCtrlData>:
/* Control transfer with data stage */
BYTE XferCtrlData( BYTE addr, BYTE ep, WORD nbytes, BYTE* dataptr, BOOL direction )
{
 80021ac:	defff804 	addi	sp,sp,-32
 80021b0:	dfc00715 	stw	ra,28(sp)
 80021b4:	df000615 	stw	fp,24(sp)
 80021b8:	df000604 	addi	fp,sp,24
 80021bc:	2807883a 	mov	r3,r5
 80021c0:	3005883a 	mov	r2,r6
 80021c4:	e1ffff15 	stw	r7,-4(fp)
 80021c8:	e13ffc05 	stb	r4,-16(fp)
 80021cc:	e0fffd05 	stb	r3,-12(fp)
 80021d0:	e0bffe0d 	sth	r2,-8(fp)
  BYTE rcode;

    //MAXreg_wr( rHCTL, bmRCVTOG1 );       //set toggle to DATA1
    if( direction ) {   //IN transfer
 80021d4:	e0800217 	ldw	r2,8(fp)
 80021d8:	10002826 	beq	r2,zero,800227c <XferCtrlData+0xd0>
        devtable[ addr ].epinfo[ ep ].rcvToggle = bmRCVTOG1;
 80021dc:	e0fffc03 	ldbu	r3,-16(fp)
 80021e0:	008200b4 	movhi	r2,2050
 80021e4:	10a53004 	addi	r2,r2,-27456
 80021e8:	180690fa 	slli	r3,r3,3
 80021ec:	10c5883a 	add	r2,r2,r3
 80021f0:	10c00017 	ldw	r3,0(r2)
 80021f4:	e0bffd03 	ldbu	r2,-12(fp)
 80021f8:	100490fa 	slli	r2,r2,3
 80021fc:	1885883a 	add	r2,r3,r2
 8002200:	00c00804 	movi	r3,32
 8002204:	10c00185 	stb	r3,6(r2)
        rcode = XferInTransfer( addr, ep, nbytes, dataptr, devtable[ addr ].epinfo[ ep ].MaxPktSize );
 8002208:	e13ffc03 	ldbu	r4,-16(fp)
 800220c:	e17ffd03 	ldbu	r5,-12(fp)
 8002210:	e1bffe0b 	ldhu	r6,-8(fp)
 8002214:	e0fffc03 	ldbu	r3,-16(fp)
 8002218:	008200b4 	movhi	r2,2050
 800221c:	10a53004 	addi	r2,r2,-27456
 8002220:	180690fa 	slli	r3,r3,3
 8002224:	10c5883a 	add	r2,r2,r3
 8002228:	10c00017 	ldw	r3,0(r2)
 800222c:	e0bffd03 	ldbu	r2,-12(fp)
 8002230:	100490fa 	slli	r2,r2,3
 8002234:	1885883a 	add	r2,r3,r2
 8002238:	1080008b 	ldhu	r2,2(r2)
 800223c:	10803fcc 	andi	r2,r2,255
 8002240:	d8800015 	stw	r2,0(sp)
 8002244:	e1ffff17 	ldw	r7,-4(fp)
 8002248:	80024840 	call	8002484 <XferInTransfer>
 800224c:	e0bffb05 	stb	r2,-20(fp)
        if( rcode ) {
 8002250:	e0bffb03 	ldbu	r2,-20(fp)
 8002254:	10000226 	beq	r2,zero,8002260 <XferCtrlData+0xb4>
        return( rcode );
 8002258:	e0bffb03 	ldbu	r2,-20(fp)
 800225c:	00000806 	br	8002280 <XferCtrlData+0xd4>
        }
        rcode = XferDispatchPkt( tokOUTHS, ep );
 8002260:	e0bffd03 	ldbu	r2,-12(fp)
 8002264:	100b883a 	mov	r5,r2
 8002268:	01002804 	movi	r4,160
 800226c:	80023080 	call	8002308 <XferDispatchPkt>
 8002270:	e0bffb05 	stb	r2,-20(fp)
        return( rcode );
 8002274:	e0bffb03 	ldbu	r2,-20(fp)
 8002278:	00000106 	br	8002280 <XferCtrlData+0xd4>
    }
    else {              //OUT not implemented
        return( 0xff );
 800227c:	00bfffc4 	movi	r2,-1
    }
}
 8002280:	e037883a 	mov	sp,fp
 8002284:	dfc00117 	ldw	ra,4(sp)
 8002288:	df000017 	ldw	fp,0(sp)
 800228c:	dec00204 	addi	sp,sp,8
 8002290:	f800283a 	ret

08002294 <XferCtrlND>:
/* Control transfer with status stage and no data stage */
BYTE XferCtrlND( BYTE addr, BYTE ep, WORD nbytes, BYTE* dataptr, BOOL direction )
{
 8002294:	defff904 	addi	sp,sp,-28
 8002298:	dfc00615 	stw	ra,24(sp)
 800229c:	df000515 	stw	fp,20(sp)
 80022a0:	df000504 	addi	fp,sp,20
 80022a4:	2807883a 	mov	r3,r5
 80022a8:	3005883a 	mov	r2,r6
 80022ac:	e1ffff15 	stw	r7,-4(fp)
 80022b0:	e13ffc05 	stb	r4,-16(fp)
 80022b4:	e0fffd05 	stb	r3,-12(fp)
 80022b8:	e0bffe0d 	sth	r2,-8(fp)
  BYTE rcode;
    if( direction ) { //GET
 80022bc:	e0800217 	ldw	r2,8(fp)
 80022c0:	10000626 	beq	r2,zero,80022dc <XferCtrlND+0x48>
        rcode = XferDispatchPkt( tokOUTHS, ep );
 80022c4:	e0bffd03 	ldbu	r2,-12(fp)
 80022c8:	100b883a 	mov	r5,r2
 80022cc:	01002804 	movi	r4,160
 80022d0:	80023080 	call	8002308 <XferDispatchPkt>
 80022d4:	e0bffb05 	stb	r2,-20(fp)
 80022d8:	00000506 	br	80022f0 <XferCtrlND+0x5c>
    }
    else {
        rcode = XferDispatchPkt( tokINHS, ep );
 80022dc:	e0bffd03 	ldbu	r2,-12(fp)
 80022e0:	100b883a 	mov	r5,r2
 80022e4:	01002004 	movi	r4,128
 80022e8:	80023080 	call	8002308 <XferDispatchPkt>
 80022ec:	e0bffb05 	stb	r2,-20(fp)
    }
    return( rcode );
 80022f0:	e0bffb03 	ldbu	r2,-20(fp)
}
 80022f4:	e037883a 	mov	sp,fp
 80022f8:	dfc00117 	ldw	ra,4(sp)
 80022fc:	df000017 	ldw	fp,0(sp)
 8002300:	dec00204 	addi	sp,sp,8
 8002304:	f800283a 	ret

08002308 <XferDispatchPkt>:
/* Result code: 0 success, nonzero = error condition                                                */
/* If NAK, tries to re-send up to USB_NAK_LIMIT times                                               */
/* If bus timeout, re-sends up to USB_RETRY_LIMIT times                                             */
/* return codes 0x00-0x0f are HRSLT( 0x00 being success ), 0xff means timeout                       */
BYTE XferDispatchPkt( BYTE token, BYTE ep )
{
 8002308:	defff904 	addi	sp,sp,-28
 800230c:	dfc00615 	stw	ra,24(sp)
 8002310:	df000515 	stw	fp,20(sp)
 8002314:	df000504 	addi	fp,sp,20
 8002318:	2007883a 	mov	r3,r4
 800231c:	2805883a 	mov	r2,r5
 8002320:	e0fffe05 	stb	r3,-8(fp)
 8002324:	e0bfff05 	stb	r2,-4(fp)
 * alt_nticks() returns the elapsed number of system clock ticks since reset.
 */

static ALT_INLINE alt_u32 ALT_ALWAYS_INLINE alt_nticks (void)
{
  return _alt_nticks;
 8002328:	d0a70217 	ldw	r2,-25592(gp)
 DWORD timeout = (alt_nticks()*1000)/alt_ticks_per_second() + USB_XFER_TIMEOUT;
 800232c:	0140fa04 	movi	r5,1000
 8002330:	1009883a 	mov	r4,r2
 8002334:	800310c0 	call	800310c <__mulsi3>
 8002338:	1007883a 	mov	r3,r2
 * Obtain the system clock rate in ticks/s. 
 */

static ALT_INLINE alt_u32 ALT_ALWAYS_INLINE alt_ticks_per_second (void)
{
  return _alt_tick_rate;
 800233c:	d0a70117 	ldw	r2,-25596(gp)
 8002340:	100b883a 	mov	r5,r2
 8002344:	1809883a 	mov	r4,r3
 8002348:	80030500 	call	8003050 <__udivsi3>
 800234c:	1084e204 	addi	r2,r2,5000
 8002350:	e0bffc15 	stw	r2,-16(fp)
 BYTE tmpdata;
 BYTE rcode;
 char retry_count = 0;
 8002354:	e03ffb45 	stb	zero,-19(fp)
 BYTE nak_count = 0;
 8002358:	e03ffb85 	stb	zero,-18(fp)

    while( 1 ) {
        MAXreg_wr( rHXFR, ( token|ep ));            //launch the transfer
 800235c:	e0fffe03 	ldbu	r3,-8(fp)
 8002360:	e0bfff03 	ldbu	r2,-4(fp)
 8002364:	1884b03a 	or	r2,r3,r2
 8002368:	10803fcc 	andi	r2,r2,255
 800236c:	100b883a 	mov	r5,r2
 8002370:	01003c04 	movi	r4,240
 8002374:	80019340 	call	8001934 <MAXreg_wr>
        rcode = 0xff;
 8002378:	00bfffc4 	movi	r2,-1
 800237c:	e0bffb05 	stb	r2,-20(fp)
        while( (alt_nticks()*1000)/alt_ticks_per_second() < timeout ) {
 8002380:	00000d06 	br	80023b8 <XferDispatchPkt+0xb0>
            tmpdata = MAXreg_rd( rHIRQ );
 8002384:	01003204 	movi	r4,200
 8002388:	8001b200 	call	8001b20 <MAXreg_rd>
 800238c:	e0bffd05 	stb	r2,-12(fp)
            if( tmpdata & bmHXFRDNIRQ ) {
 8002390:	e0bffd03 	ldbu	r2,-12(fp)
 8002394:	10803fcc 	andi	r2,r2,255
 8002398:	1080201c 	xori	r2,r2,128
 800239c:	10bfe004 	addi	r2,r2,-128
 80023a0:	1000050e 	bge	r2,zero,80023b8 <XferDispatchPkt+0xb0>
                MAXreg_wr( rHIRQ, bmHXFRDNIRQ );    //clear the interrupt
 80023a4:	01402004 	movi	r5,128
 80023a8:	01003204 	movi	r4,200
 80023ac:	80019340 	call	8001934 <MAXreg_wr>
                rcode = 0x00;
 80023b0:	e03ffb05 	stb	zero,-20(fp)
                break;
 80023b4:	00000c06 	br	80023e8 <XferDispatchPkt+0xe0>
 * alt_nticks() returns the elapsed number of system clock ticks since reset.
 */

static ALT_INLINE alt_u32 ALT_ALWAYS_INLINE alt_nticks (void)
{
  return _alt_nticks;
 80023b8:	d0a70217 	ldw	r2,-25592(gp)
 BYTE nak_count = 0;

    while( 1 ) {
        MAXreg_wr( rHXFR, ( token|ep ));            //launch the transfer
        rcode = 0xff;
        while( (alt_nticks()*1000)/alt_ticks_per_second() < timeout ) {
 80023bc:	0140fa04 	movi	r5,1000
 80023c0:	1009883a 	mov	r4,r2
 80023c4:	800310c0 	call	800310c <__mulsi3>
 80023c8:	1007883a 	mov	r3,r2
 * Obtain the system clock rate in ticks/s. 
 */

static ALT_INLINE alt_u32 ALT_ALWAYS_INLINE alt_ticks_per_second (void)
{
  return _alt_tick_rate;
 80023cc:	d0a70117 	ldw	r2,-25596(gp)
 80023d0:	100b883a 	mov	r5,r2
 80023d4:	1809883a 	mov	r4,r3
 80023d8:	80030500 	call	8003050 <__udivsi3>
 80023dc:	1007883a 	mov	r3,r2
 80023e0:	e0bffc17 	ldw	r2,-16(fp)
 80023e4:	18bfe736 	bltu	r3,r2,8002384 <__alt_data_end+0xfc002384>
                MAXreg_wr( rHIRQ, bmHXFRDNIRQ );    //clear the interrupt
                rcode = 0x00;
                break;
            }
        }
        if( rcode != 0x00 ) {               //exit if timeout
 80023e8:	e0bffb03 	ldbu	r2,-20(fp)
 80023ec:	10000226 	beq	r2,zero,80023f8 <XferDispatchPkt+0xf0>
            return( rcode );
 80023f0:	e0bffb03 	ldbu	r2,-20(fp)
 80023f4:	00001e06 	br	8002470 <XferDispatchPkt+0x168>
        }
        rcode = ( MAXreg_rd( rHRSL ) & 0x0f );
 80023f8:	01003e04 	movi	r4,248
 80023fc:	8001b200 	call	8001b20 <MAXreg_rd>
 8002400:	108003cc 	andi	r2,r2,15
 8002404:	e0bffb05 	stb	r2,-20(fp)
        if( rcode == hrNAK ) {
 8002408:	e0bffb03 	ldbu	r2,-20(fp)
 800240c:	10800118 	cmpnei	r2,r2,4
 8002410:	1000071e 	bne	r2,zero,8002430 <XferDispatchPkt+0x128>
            nak_count++;
 8002414:	e0bffb83 	ldbu	r2,-18(fp)
 8002418:	10800044 	addi	r2,r2,1
 800241c:	e0bffb85 	stb	r2,-18(fp)
            if( nak_count == USB_NAK_LIMIT ) {
 8002420:	e0bffb83 	ldbu	r2,-18(fp)
 8002424:	10803218 	cmpnei	r2,r2,200
 8002428:	10000b1e 	bne	r2,zero,8002458 <XferDispatchPkt+0x150>
                break;
 800242c:	00000f06 	br	800246c <XferDispatchPkt+0x164>
            }
            else {
                continue;
            }
        }
        if( rcode == hrTIMEOUT ) {
 8002430:	e0bffb03 	ldbu	r2,-20(fp)
 8002434:	10800398 	cmpnei	r2,r2,14
 8002438:	1000091e 	bne	r2,zero,8002460 <XferDispatchPkt+0x158>
            retry_count++;
 800243c:	e0bffb43 	ldbu	r2,-19(fp)
 8002440:	10800044 	addi	r2,r2,1
 8002444:	e0bffb45 	stb	r2,-19(fp)
            if( retry_count == USB_RETRY_LIMIT ) {
 8002448:	e0bffb47 	ldb	r2,-19(fp)
 800244c:	108000d8 	cmpnei	r2,r2,3
 8002450:	10000526 	beq	r2,zero,8002468 <XferDispatchPkt+0x160>
                break;
            }
            else {
                continue;
 8002454:	00000106 	br	800245c <XferDispatchPkt+0x154>
            nak_count++;
            if( nak_count == USB_NAK_LIMIT ) {
                break;
            }
            else {
                continue;
 8002458:	0001883a 	nop
            else {
                continue;
            }
        }
        else break;
    }//while( 1 )
 800245c:	003fbf06 	br	800235c <__alt_data_end+0xfc00235c>
            }
            else {
                continue;
            }
        }
        else break;
 8002460:	0001883a 	nop
 8002464:	00000106 	br	800246c <XferDispatchPkt+0x164>
            }
        }
        if( rcode == hrTIMEOUT ) {
            retry_count++;
            if( retry_count == USB_RETRY_LIMIT ) {
                break;
 8002468:	0001883a 	nop
                continue;
            }
        }
        else break;
    }//while( 1 )
    return( rcode );
 800246c:	e0bffb03 	ldbu	r2,-20(fp)
}
 8002470:	e037883a 	mov	sp,fp
 8002474:	dfc00117 	ldw	ra,4(sp)
 8002478:	df000017 	ldw	fp,0(sp)
 800247c:	dec00204 	addi	sp,sp,8
 8002480:	f800283a 	ret

08002484 <XferInTransfer>:
/* IN transfer to arbitrary endpoint. Assumes PERADDR is set. Handles multiple packets if necessary. Transfers 'nbytes' bytes.
    Keep sending INs and writes data to memory area pointed by 'data' */
/* rcode 0 if no errors. rcode 01-0f is relayed from prvXferDispatchPkt(). Rcode f0 means RCVDAVIRQ error,
            fe USB xfer timeout */
BYTE XferInTransfer( BYTE addr/* not sure if it's necessary */, BYTE ep, WORD nbytes, BYTE* data, BYTE maxpktsize )
{
 8002484:	defff804 	addi	sp,sp,-32
 8002488:	dfc00715 	stw	ra,28(sp)
 800248c:	df000615 	stw	fp,24(sp)
 8002490:	df000604 	addi	fp,sp,24
 8002494:	2011883a 	mov	r8,r4
 8002498:	2809883a 	mov	r4,r5
 800249c:	3007883a 	mov	r3,r6
 80024a0:	e1fffe15 	stw	r7,-8(fp)
 80024a4:	e0800217 	ldw	r2,8(fp)
 80024a8:	e23ffb05 	stb	r8,-20(fp)
 80024ac:	e13ffc05 	stb	r4,-16(fp)
 80024b0:	e0fffd0d 	sth	r3,-12(fp)
 80024b4:	e0bfff05 	stb	r2,-4(fp)
 BYTE rcode;
 BYTE i;
 BYTE tmpbyte;
 BYTE pktsize;
 WORD xfrlen = 0;
 80024b8:	e03ffa0d 	sth	zero,-24(fp)
    MAXreg_wr( rHCTL, devtable[ addr ].epinfo[ ep ].rcvToggle );    //set toggle value
 80024bc:	e0fffb03 	ldbu	r3,-20(fp)
 80024c0:	008200b4 	movhi	r2,2050
 80024c4:	10a53004 	addi	r2,r2,-27456
 80024c8:	180690fa 	slli	r3,r3,3
 80024cc:	10c5883a 	add	r2,r2,r3
 80024d0:	10c00017 	ldw	r3,0(r2)
 80024d4:	e0bffc03 	ldbu	r2,-16(fp)
 80024d8:	100490fa 	slli	r2,r2,3
 80024dc:	1885883a 	add	r2,r3,r2
 80024e0:	10800183 	ldbu	r2,6(r2)
 80024e4:	10803fcc 	andi	r2,r2,255
 80024e8:	100b883a 	mov	r5,r2
 80024ec:	01003a04 	movi	r4,232
 80024f0:	80019340 	call	8001934 <MAXreg_wr>
    while( 1 ) { // use a 'return' to exit this loop
        rcode = XferDispatchPkt( tokIN, ep );           //IN packet to EP-'endpoint'. Function takes care of NAKS.
 80024f4:	e0bffc03 	ldbu	r2,-16(fp)
 80024f8:	100b883a 	mov	r5,r2
 80024fc:	0009883a 	mov	r4,zero
 8002500:	80023080 	call	8002308 <XferDispatchPkt>
 8002504:	e0bffa85 	stb	r2,-22(fp)
        if( rcode ) {
 8002508:	e0bffa83 	ldbu	r2,-22(fp)
 800250c:	10000226 	beq	r2,zero,8002518 <XferInTransfer+0x94>
            return( rcode );                            //should be 0, indicating ACK. Else return error code.
 8002510:	e0bffa83 	ldbu	r2,-22(fp)
 8002514:	00003a06 	br	8002600 <XferInTransfer+0x17c>
        }
        /* check for RCVDAVIRQ and generate error if not present */
        /* the only case when absence of RCVDAVIRQ makes sense is when toggle error occurred. Need to add handling for that */
        if(( MAXreg_rd( rHIRQ ) & bmRCVDAVIRQ ) == 0 ) {
 8002518:	01003204 	movi	r4,200
 800251c:	8001b200 	call	8001b20 <MAXreg_rd>
 8002520:	10803fcc 	andi	r2,r2,255
 8002524:	1080010c 	andi	r2,r2,4
 8002528:	1000021e 	bne	r2,zero,8002534 <XferInTransfer+0xb0>
            return ( 0xf0 );                            //receive error
 800252c:	00bffc04 	movi	r2,-16
 8002530:	00003306 	br	8002600 <XferInTransfer+0x17c>
        }
        pktsize = MAXreg_rd( rRCVBC );                  //number of received bytes
 8002534:	01000c04 	movi	r4,48
 8002538:	8001b200 	call	8001b20 <MAXreg_rd>
 800253c:	e0bffac5 	stb	r2,-21(fp)
        //printf ("pktsize: %d\n", pktsize);
        data = MAXbytes_rd( rRCVFIFO, pktsize, data );
 8002540:	e0bffac3 	ldbu	r2,-21(fp)
 8002544:	e1bffe17 	ldw	r6,-8(fp)
 8002548:	100b883a 	mov	r5,r2
 800254c:	01000204 	movi	r4,8
 8002550:	8001b940 	call	8001b94 <MAXbytes_rd>
 8002554:	e0bffe15 	stw	r2,-8(fp)
        MAXreg_wr( rHIRQ, bmRCVDAVIRQ );                // Clear the IRQ & free the buffer
 8002558:	01400104 	movi	r5,4
 800255c:	01003204 	movi	r4,200
 8002560:	80019340 	call	8001934 <MAXreg_wr>
        xfrlen += pktsize;                              // add this packet's byte count to total transfer length
 8002564:	e0fffac3 	ldbu	r3,-21(fp)
 8002568:	e0bffa0b 	ldhu	r2,-24(fp)
 800256c:	1885883a 	add	r2,r3,r2
 8002570:	e0bffa0d 	sth	r2,-24(fp)
        /* The transfer is complete under two conditions:           */
        /* 1. The device sent a short packet (L.T. maxPacketSize)   */
        /* 2. 'nbytes' have been transferred.                       */
        if (( pktsize < maxpktsize ) || (xfrlen >= nbytes )) {    // have we transferred 'nbytes' bytes?
 8002574:	e0fffac3 	ldbu	r3,-21(fp)
 8002578:	e0bfff03 	ldbu	r2,-4(fp)
 800257c:	18800336 	bltu	r3,r2,800258c <XferInTransfer+0x108>
 8002580:	e0fffa0b 	ldhu	r3,-24(fp)
 8002584:	e0bffd0b 	ldhu	r2,-12(fp)
 8002588:	18bfda36 	bltu	r3,r2,80024f4 <__alt_data_end+0xfc0024f4>
            if( MAXreg_rd( rHRSL ) & bmRCVTOGRD ) {                 //save toggle value
 800258c:	01003e04 	movi	r4,248
 8002590:	8001b200 	call	8001b20 <MAXreg_rd>
 8002594:	10803fcc 	andi	r2,r2,255
 8002598:	1080040c 	andi	r2,r2,16
 800259c:	10000c26 	beq	r2,zero,80025d0 <XferInTransfer+0x14c>
                devtable[ addr ].epinfo[ ep ].rcvToggle = bmRCVTOG1;
 80025a0:	e0fffb03 	ldbu	r3,-20(fp)
 80025a4:	008200b4 	movhi	r2,2050
 80025a8:	10a53004 	addi	r2,r2,-27456
 80025ac:	180690fa 	slli	r3,r3,3
 80025b0:	10c5883a 	add	r2,r2,r3
 80025b4:	10c00017 	ldw	r3,0(r2)
 80025b8:	e0bffc03 	ldbu	r2,-16(fp)
 80025bc:	100490fa 	slli	r2,r2,3
 80025c0:	1885883a 	add	r2,r3,r2
 80025c4:	00c00804 	movi	r3,32
 80025c8:	10c00185 	stb	r3,6(r2)
 80025cc:	00000b06 	br	80025fc <XferInTransfer+0x178>
            }
            else {
                devtable[ addr ].epinfo[ ep ].rcvToggle = bmRCVTOG0;
 80025d0:	e0fffb03 	ldbu	r3,-20(fp)
 80025d4:	008200b4 	movhi	r2,2050
 80025d8:	10a53004 	addi	r2,r2,-27456
 80025dc:	180690fa 	slli	r3,r3,3
 80025e0:	10c5883a 	add	r2,r2,r3
 80025e4:	10c00017 	ldw	r3,0(r2)
 80025e8:	e0bffc03 	ldbu	r2,-16(fp)
 80025ec:	100490fa 	slli	r2,r2,3
 80025f0:	1885883a 	add	r2,r3,r2
 80025f4:	00c00404 	movi	r3,16
 80025f8:	10c00185 	stb	r3,6(r2)
            }
            return( 0 );
 80025fc:	0005883a 	mov	r2,zero
        }
  }//while( 1 )
}
 8002600:	e037883a 	mov	sp,fp
 8002604:	dfc00117 	ldw	ra,4(sp)
 8002608:	df000017 	ldw	fp,0(sp)
 800260c:	dec00204 	addi	sp,sp,8
 8002610:	f800283a 	ret

08002614 <USB_init>:
/* initialization of USB data structures */
void USB_init( void )
{
 8002614:	defffe04 	addi	sp,sp,-8
 8002618:	df000115 	stw	fp,4(sp)
 800261c:	df000104 	addi	fp,sp,4
  BYTE i;
    for( i = 0; i < ( USB_NUMDEVICES + 1 ); i++ ) {
 8002620:	e03fff05 	stb	zero,-4(fp)
 8002624:	00001006 	br	8002668 <USB_init+0x54>
        devtable[ i ].epinfo = NULL;       //clear device table
 8002628:	e0ffff03 	ldbu	r3,-4(fp)
 800262c:	008200b4 	movhi	r2,2050
 8002630:	10a53004 	addi	r2,r2,-27456
 8002634:	180690fa 	slli	r3,r3,3
 8002638:	10c5883a 	add	r2,r2,r3
 800263c:	10000015 	stw	zero,0(r2)
        devtable[ i ].devclass = 0;
 8002640:	e0ffff03 	ldbu	r3,-4(fp)
 8002644:	008200b4 	movhi	r2,2050
 8002648:	10a53004 	addi	r2,r2,-27456
 800264c:	180690fa 	slli	r3,r3,3
 8002650:	10c5883a 	add	r2,r2,r3
 8002654:	10800104 	addi	r2,r2,4
 8002658:	10000005 	stb	zero,0(r2)
}
/* initialization of USB data structures */
void USB_init( void )
{
  BYTE i;
    for( i = 0; i < ( USB_NUMDEVICES + 1 ); i++ ) {
 800265c:	e0bfff03 	ldbu	r2,-4(fp)
 8002660:	10800044 	addi	r2,r2,1
 8002664:	e0bfff05 	stb	r2,-4(fp)
 8002668:	e0bfff03 	ldbu	r2,-4(fp)
 800266c:	10800270 	cmpltui	r2,r2,9
 8002670:	103fed1e 	bne	r2,zero,8002628 <__alt_data_end+0xfc002628>
        devtable[ i ].epinfo = NULL;       //clear device table
        devtable[ i ].devclass = 0;
    }
    devtable[ 0 ].epinfo = &dev0ep;  //set single ep for uninitialized device
 8002674:	008200b4 	movhi	r2,2050
 8002678:	10a53004 	addi	r2,r2,-27456
 800267c:	d0e6f204 	addi	r3,gp,-25656
 8002680:	10c00015 	stw	r3,0(r2)
    dev0ep.MaxPktSize = 0;
 8002684:	d026f28d 	sth	zero,-25654(gp)
    dev0ep.sndToggle = bmSNDTOG0;   //set DATA0/1 toggles to 0
 8002688:	00801004 	movi	r2,64
 800268c:	d0a6f345 	stb	r2,-25651(gp)
    dev0ep.rcvToggle = bmRCVTOG0;
 8002690:	00800404 	movi	r2,16
 8002694:	d0a6f385 	stb	r2,-25650(gp)
}
 8002698:	0001883a 	nop
 800269c:	e037883a 	mov	sp,fp
 80026a0:	df000017 	ldw	fp,0(sp)
 80026a4:	dec00104 	addi	sp,sp,4
 80026a8:	f800283a 	ret

080026ac <USB_Task>:
/* error codes: 01-0f HRSLT        */
/* ff - unsupported device         */
/* fe - no address available       */
/* fd - no client driver available */
void USB_Task( void )
{
 80026ac:	deffb204 	addi	sp,sp,-312
 80026b0:	dfc04d15 	stw	ra,308(sp)
 80026b4:	df004c15 	stw	fp,304(sp)
 80026b8:	dc004b15 	stw	r16,300(sp)
 80026bc:	df004c04 	addi	fp,sp,304
 USB_DEVICE_DESCRIPTOR buf;

 BYTE rcode, tmpdata;
 BYTE i;

    switch( usb_task_state & USB_STATE_MASK ) {
 80026c0:	d0a00303 	ldbu	r2,-32756(gp)
 80026c4:	10803fcc 	andi	r2,r2,255
 80026c8:	10803c0c 	andi	r2,r2,240
 80026cc:	10c00820 	cmpeqi	r3,r2,32
 80026d0:	1801121e 	bne	r3,zero,8002b1c <USB_Task+0x470>
 80026d4:	10c00848 	cmpgei	r3,r2,33
 80026d8:	1800041e 	bne	r3,zero,80026ec <USB_Task+0x40>
 80026dc:	10000a26 	beq	r2,zero,8002708 <USB_Task+0x5c>
 80026e0:	10800420 	cmpeqi	r2,r2,16
 80026e4:	10001b1e 	bne	r2,zero,8002754 <USB_Task+0xa8>
        case( USB_STATE_ERROR ):
            //vTaskDelay( LED_RATE ); //stay here if error
            break;//( USB_STATE_ERROR )
        default:
            //Should never get here
            break;
 80026e8:	00017a06 	br	8002cd4 <USB_Task+0x628>
 USB_DEVICE_DESCRIPTOR buf;

 BYTE rcode, tmpdata;
 BYTE i;

    switch( usb_task_state & USB_STATE_MASK ) {
 80026ec:	10c01020 	cmpeqi	r3,r2,64
 80026f0:	18016f1e 	bne	r3,zero,8002cb0 <USB_Task+0x604>
 80026f4:	10c03fe0 	cmpeqi	r3,r2,255
 80026f8:	18016f1e 	bne	r3,zero,8002cb8 <USB_Task+0x60c>
 80026fc:	10800c20 	cmpeqi	r2,r2,48
 8002700:	1001441e 	bne	r2,zero,8002c14 <USB_Task+0x568>
        case( USB_STATE_ERROR ):
            //vTaskDelay( LED_RATE ); //stay here if error
            break;//( USB_STATE_ERROR )
        default:
            //Should never get here
            break;
 8002704:	00017306 	br	8002cd4 <USB_Task+0x628>
 BYTE i;

    switch( usb_task_state & USB_STATE_MASK ) {
        /* Detached state - when nothing is connected to ( or just disconnected from) USB bus   */
        case( USB_STATE_DETACHED ):
            switch( usb_task_state ) {
 8002708:	d0a00303 	ldbu	r2,-32756(gp)
 800270c:	10803fcc 	andi	r2,r2,255
 8002710:	10c000e0 	cmpeqi	r3,r2,3
 8002714:	1800091e 	bne	r3,zero,800273c <USB_Task+0x90>
 8002718:	10c00120 	cmpeqi	r3,r2,4
 800271c:	18000b1e 	bne	r3,zero,800274c <USB_Task+0xa0>
 8002720:	10800060 	cmpeqi	r2,r2,1
 8002724:	1000011e 	bne	r2,zero,800272c <USB_Task+0x80>
                    break;
                case( USB_DETACHED_SUBSTATE_ILLEGAL ):
                    /* don't know what to do yet */
                    break;
            }//switch( usb_task_state )
            break;//( USB_STATE_DETACHED ):
 8002728:	00016a06 	br	8002cd4 <USB_Task+0x628>
        /* Detached state - when nothing is connected to ( or just disconnected from) USB bus   */
        case( USB_STATE_DETACHED ):
            switch( usb_task_state ) {
                case( USB_DETACHED_SUBSTATE_INITIALIZE ):
                    /* cleanup device data structures */
                    USB_init();
 800272c:	80026140 	call	8002614 <USB_init>
                    usb_task_state = USB_DETACHED_SUBSTATE_WAIT_FOR_DEVICE;
 8002730:	008000c4 	movi	r2,3
 8002734:	d0a00305 	stb	r2,-32756(gp)
                    break;
 8002738:	00000506 	br	8002750 <USB_Task+0xa4>
                case( USB_DETACHED_SUBSTATE_WAIT_FOR_DEVICE ):
                    /* Do nothing */
                    MAXreg_wr(rHCTL,bmSAMPLEBUS);
 800273c:	01400104 	movi	r5,4
 8002740:	01003a04 	movi	r4,232
 8002744:	80019340 	call	8001934 <MAXreg_wr>
                    break;
 8002748:	00000106 	br	8002750 <USB_Task+0xa4>
                case( USB_DETACHED_SUBSTATE_ILLEGAL ):
                    /* don't know what to do yet */
                    break;
 800274c:	0001883a 	nop
            }//switch( usb_task_state )
            break;//( USB_STATE_DETACHED ):
 8002750:	00016006 	br	8002cd4 <USB_Task+0x628>
            /**/
        case( USB_STATE_ATTACHED ):                     //prepare for enumeration
            switch( usb_task_state ) {
 8002754:	d0a00303 	ldbu	r2,-32756(gp)
 8002758:	10803fcc 	andi	r2,r2,255
 800275c:	10bffc04 	addi	r2,r2,-16
 8002760:	10c001a8 	cmpgeui	r3,r2,6
 8002764:	1801561e 	bne	r3,zero,8002cc0 <USB_Task+0x614>
 8002768:	100690ba 	slli	r3,r2,2
 800276c:	00820034 	movhi	r2,2048
 8002770:	1089e004 	addi	r2,r2,10112
 8002774:	1885883a 	add	r2,r3,r2
 8002778:	10800017 	ldw	r2,0(r2)
 800277c:	1000683a 	jmp	r2
 8002780:	08002798 	cmpnei	zero,at,158
 8002784:	080027d0 	cmplti	zero,at,159
 8002788:	0800280c 	andi	zero,at,160
 800278c:	08002830 	cmpltui	zero,at,160
 8002790:	08002870 	cmpltui	zero,at,161
 8002794:	08002884 	addi	zero,at,162
 * alt_nticks() returns the elapsed number of system clock ticks since reset.
 */

static ALT_INLINE alt_u32 ALT_ALWAYS_INLINE alt_nticks (void)
{
  return _alt_nticks;
 8002798:	d0a70217 	ldw	r2,-25592(gp)
                case( USB_STATE_ATTACHED ):
                    usb_delay = (alt_nticks()*1000)/alt_ticks_per_second() + 200;           //initial settle 200ms
 800279c:	0140fa04 	movi	r5,1000
 80027a0:	1009883a 	mov	r4,r2
 80027a4:	800310c0 	call	800310c <__mulsi3>
 80027a8:	1007883a 	mov	r3,r2
 * Obtain the system clock rate in ticks/s. 
 */

static ALT_INLINE alt_u32 ALT_ALWAYS_INLINE alt_ticks_per_second (void)
{
  return _alt_tick_rate;
 80027ac:	d0a70117 	ldw	r2,-25596(gp)
 80027b0:	100b883a 	mov	r5,r2
 80027b4:	1809883a 	mov	r4,r3
 80027b8:	80030500 	call	8003050 <__udivsi3>
 80027bc:	10803204 	addi	r2,r2,200
 80027c0:	d0a6f515 	stw	r2,-25644(gp)
                    usb_task_state = USB_ATTACHED_SUBSTATE_SETTLE;
 80027c4:	00800444 	movi	r2,17
 80027c8:	d0a00305 	stb	r2,-32756(gp)
                    break;//case( USB_STATE_ATTACHED )
 80027cc:	0000d206 	br	8002b18 <USB_Task+0x46c>
 * alt_nticks() returns the elapsed number of system clock ticks since reset.
 */

static ALT_INLINE alt_u32 ALT_ALWAYS_INLINE alt_nticks (void)
{
  return _alt_nticks;
 80027d0:	d0a70217 	ldw	r2,-25592(gp)
                case( USB_ATTACHED_SUBSTATE_SETTLE ):   //waiting for settle timer to expire
                    if( (alt_nticks()*1000)/alt_ticks_per_second() > usb_delay ) {
 80027d4:	0140fa04 	movi	r5,1000
 80027d8:	1009883a 	mov	r4,r2
 80027dc:	800310c0 	call	800310c <__mulsi3>
 80027e0:	1007883a 	mov	r3,r2
 * Obtain the system clock rate in ticks/s. 
 */

static ALT_INLINE alt_u32 ALT_ALWAYS_INLINE alt_ticks_per_second (void)
{
  return _alt_tick_rate;
 80027e4:	d0a70117 	ldw	r2,-25596(gp)
 80027e8:	100b883a 	mov	r5,r2
 80027ec:	1809883a 	mov	r4,r3
 80027f0:	80030500 	call	8003050 <__udivsi3>
 80027f4:	1007883a 	mov	r3,r2
 80027f8:	d0a6f517 	ldw	r2,-25644(gp)
 80027fc:	10c0c32e 	bgeu	r2,r3,8002b0c <USB_Task+0x460>
                        usb_task_state = USB_ATTACHED_SUBSTATE_RESET_DEVICE;
 8002800:	00800484 	movi	r2,18
 8002804:	d0a00305 	stb	r2,-32756(gp)
                    }
                    break;//case( USB_ATTACHED_SUBSTATE_SETTLE )
 8002808:	0000c006 	br	8002b0c <USB_Task+0x460>
                case( USB_ATTACHED_SUBSTATE_RESET_DEVICE ):
                    MAXreg_wr( rHIRQ, bmBUSEVENTIRQ );                               //clear bus event IRQ
 800280c:	01400044 	movi	r5,1
 8002810:	01003204 	movi	r4,200
 8002814:	80019340 	call	8001934 <MAXreg_wr>
                    MAXreg_wr( rHCTL, bmBUSRST );                                    //issue bus reset
 8002818:	01400044 	movi	r5,1
 800281c:	01003a04 	movi	r4,232
 8002820:	80019340 	call	8001934 <MAXreg_wr>
                    usb_task_state = USB_ATTACHED_SUBSTATE_WAIT_RESET_COMPLETE;
 8002824:	008004c4 	movi	r2,19
 8002828:	d0a00305 	stb	r2,-32756(gp)
                    break;//case( USB_ATTACHED_SUBSTATE_RESET_DEVICE )
 800282c:	0000ba06 	br	8002b18 <USB_Task+0x46c>
                case( USB_ATTACHED_SUBSTATE_WAIT_RESET_COMPLETE ):                  //wait for bus reset and first SOF
                    if(( MAXreg_rd( rHCTL ) & bmBUSRST ) == 0 ) {
 8002830:	01003a04 	movi	r4,232
 8002834:	8001b200 	call	8001b20 <MAXreg_rd>
 8002838:	10803fcc 	andi	r2,r2,255
 800283c:	1080004c 	andi	r2,r2,1
 8002840:	1000b41e 	bne	r2,zero,8002b14 <USB_Task+0x468>
                        tmpdata = MAXreg_rd( rMODE ) | bmSOFKAENAB;                 //start SOF generation
 8002844:	01003604 	movi	r4,216
 8002848:	8001b200 	call	8001b20 <MAXreg_rd>
 800284c:	10800214 	ori	r2,r2,8
 8002850:	e0bfb945 	stb	r2,-283(fp)
                        MAXreg_wr( rMODE, tmpdata );
 8002854:	e0bfb943 	ldbu	r2,-283(fp)
 8002858:	100b883a 	mov	r5,r2
 800285c:	01003604 	movi	r4,216
 8002860:	80019340 	call	8001934 <MAXreg_wr>
                        usb_task_state = USB_ATTACHED_SUBSTATE_WAIT_SOF;
 8002864:	00800504 	movi	r2,20
 8002868:	d0a00305 	stb	r2,-32756(gp)
                    }
                    break;//case( USB_ATTACHED_SUBSTATE_WAIT_RESET_COMPLETE )
 800286c:	0000a906 	br	8002b14 <USB_Task+0x468>
                case( USB_ATTACHED_SUBSTATE_WAIT_SOF ):
                    if( MAXreg_rd( rHIRQ ) | bmFRAMEIRQ ) {                     //when first SOF received we can continue
 8002870:	01003204 	movi	r4,200
 8002874:	8001b200 	call	8001b20 <MAXreg_rd>
                        usb_task_state = USB_ATTACHED_SUBSTATE_GET_DEVICE_DESCRIPTOR_SIZE;
 8002878:	00800544 	movi	r2,21
 800287c:	d0a00305 	stb	r2,-32756(gp)
                    }
                    break;//case( USB_ATTACHED_SUBSTATE_WAIT_SOF )
 8002880:	0000a506 	br	8002b18 <USB_Task+0x46c>
                case( USB_ATTACHED_SUBSTATE_GET_DEVICE_DESCRIPTOR_SIZE ):   //send request for first 8 bytes of device descriptor
                    devtable[ 0 ].epinfo->MaxPktSize = 0x0008;             //fill max packet size with minimum allowed
 8002884:	008200b4 	movhi	r2,2050
 8002888:	10a53004 	addi	r2,r2,-27456
 800288c:	10800017 	ldw	r2,0(r2)
 8002890:	00c00204 	movi	r3,8
 8002894:	10c0008d 	sth	r3,2(r2)
                	rcode = XferGetDevDescr( 0, 0, 8, (BYTE *)&buf );       //get device descriptor size
 8002898:	e0bfba04 	addi	r2,fp,-280
 800289c:	d8800415 	stw	r2,16(sp)
 80028a0:	00800204 	movi	r2,8
 80028a4:	d8800315 	stw	r2,12(sp)
 80028a8:	d8000215 	stw	zero,8(sp)
 80028ac:	00800044 	movi	r2,1
 80028b0:	d8800115 	stw	r2,4(sp)
 80028b4:	d8000015 	stw	zero,0(sp)
 80028b8:	01c00184 	movi	r7,6
 80028bc:	01802004 	movi	r6,128
 80028c0:	000b883a 	mov	r5,zero
 80028c4:	0009883a 	mov	r4,zero
 80028c8:	80020600 	call	8002060 <XferCtrlReq>
 80028cc:	e0bfb985 	stb	r2,-282(fp)
                    if( rcode == 0 ) {
 80028d0:	e0bfb983 	ldbu	r2,-282(fp)
 80028d4:	1000861e 	bne	r2,zero,8002af0 <USB_Task+0x444>
                        devtable[ 0 ].epinfo->MaxPktSize = buf.bMaxPacketSize0;
 80028d8:	008200b4 	movhi	r2,2050
 80028dc:	10a53004 	addi	r2,r2,-27456
 80028e0:	10800017 	ldw	r2,0(r2)
 80028e4:	e0ffbbc3 	ldbu	r3,-273(fp)
 80028e8:	18c03fcc 	andi	r3,r3,255
 80028ec:	10c0008d 	sth	r3,2(r2)

                        rcode = XferGetDevDescr( 0, 0, buf.bLength, (BYTE *)&buf );     //get full descriptor
 80028f0:	e0bfba03 	ldbu	r2,-280(fp)
 80028f4:	10803fcc 	andi	r2,r2,255
 80028f8:	e0ffba04 	addi	r3,fp,-280
 80028fc:	d8c00415 	stw	r3,16(sp)
 8002900:	d8800315 	stw	r2,12(sp)
 8002904:	d8000215 	stw	zero,8(sp)
 8002908:	00800044 	movi	r2,1
 800290c:	d8800115 	stw	r2,4(sp)
 8002910:	d8000015 	stw	zero,0(sp)
 8002914:	01c00184 	movi	r7,6
 8002918:	01802004 	movi	r6,128
 800291c:	000b883a 	mov	r5,zero
 8002920:	0009883a 	mov	r4,zero
 8002924:	80020600 	call	8002060 <XferCtrlReq>
 8002928:	e0bfb985 	stb	r2,-282(fp)
                        //pull the string descriptor for the product if it exists
            			//hackish, store this somewhere
                        if (buf.iManufacturer != 0)
 800292c:	e0bfbd83 	ldbu	r2,-266(fp)
 8002930:	10803fcc 	andi	r2,r2,255
 8002934:	10003426 	beq	r2,zero,8002a08 <USB_Task+0x35c>
                		{
                        	USB_STRING_DESCRIPTOR strDesc;
                			rcode = XferGetStrDescr( 0, 0, 2, buf.iManufacturer, LANG_EN_US, (BYTE *)&strDesc);
 8002938:	e0bfbd83 	ldbu	r2,-266(fp)
 800293c:	10803fcc 	andi	r2,r2,255
 8002940:	e0ffbe84 	addi	r3,fp,-262
 8002944:	d8c00415 	stw	r3,16(sp)
 8002948:	00c00084 	movi	r3,2
 800294c:	d8c00315 	stw	r3,12(sp)
 8002950:	00c10244 	movi	r3,1033
 8002954:	d8c00215 	stw	r3,8(sp)
 8002958:	00c000c4 	movi	r3,3
 800295c:	d8c00115 	stw	r3,4(sp)
 8002960:	d8800015 	stw	r2,0(sp)
 8002964:	01c00184 	movi	r7,6
 8002968:	01802004 	movi	r6,128
 800296c:	000b883a 	mov	r5,zero
 8002970:	0009883a 	mov	r4,zero
 8002974:	80020600 	call	8002060 <XferCtrlReq>
 8002978:	e0bfb985 	stb	r2,-282(fp)
                			rcode = XferGetStrDescr( 0, 0, strDesc.bLength, buf.iManufacturer, LANG_EN_US, (BYTE *)&strDesc);
 800297c:	e0bfbd83 	ldbu	r2,-266(fp)
 8002980:	10803fcc 	andi	r2,r2,255
 8002984:	e0ffbe83 	ldbu	r3,-262(fp)
 8002988:	18c03fcc 	andi	r3,r3,255
 800298c:	e13fbe84 	addi	r4,fp,-262
 8002990:	d9000415 	stw	r4,16(sp)
 8002994:	d8c00315 	stw	r3,12(sp)
 8002998:	00c10244 	movi	r3,1033
 800299c:	d8c00215 	stw	r3,8(sp)
 80029a0:	00c000c4 	movi	r3,3
 80029a4:	d8c00115 	stw	r3,4(sp)
 80029a8:	d8800015 	stw	r2,0(sp)
 80029ac:	01c00184 	movi	r7,6
 80029b0:	01802004 	movi	r6,128
 80029b4:	000b883a 	mov	r5,zero
 80029b8:	0009883a 	mov	r4,zero
 80029bc:	80020600 	call	8002060 <XferCtrlReq>
 80029c0:	e0bfb985 	stb	r2,-282(fp)
                			printf ("Mfgr string(%i): %s\n", buf.iManufacturer, ConvUTF8ToStr(strDesc.bString, (strDesc.bLength>>1)-1));
 80029c4:	e0bfbd83 	ldbu	r2,-266(fp)
 80029c8:	14003fcc 	andi	r16,r2,255
 80029cc:	e0bfbe83 	ldbu	r2,-262(fp)
 80029d0:	10803fcc 	andi	r2,r2,255
 80029d4:	1004d07a 	srli	r2,r2,1
 80029d8:	10bfffc4 	addi	r2,r2,-1
 80029dc:	10c03fcc 	andi	r3,r2,255
 80029e0:	e0bfbe84 	addi	r2,fp,-262
 80029e4:	10800084 	addi	r2,r2,2
 80029e8:	180b883a 	mov	r5,r3
 80029ec:	1009883a 	mov	r4,r2
 80029f0:	8002e740 	call	8002e74 <ConvUTF8ToStr>
 80029f4:	100d883a 	mov	r6,r2
 80029f8:	800b883a 	mov	r5,r16
 80029fc:	01020074 	movhi	r4,2049
 8002a00:	21163b04 	addi	r4,r4,22764
 8002a04:	8003cf80 	call	8003cf8 <printf>
                		}
                		if (buf.iProduct != 0)
 8002a08:	e0bfbdc3 	ldbu	r2,-265(fp)
 8002a0c:	10803fcc 	andi	r2,r2,255
 8002a10:	10003426 	beq	r2,zero,8002ae4 <USB_Task+0x438>
                		{
                        	USB_STRING_DESCRIPTOR strDesc;
                        	rcode = XferGetStrDescr( 0, 0, 2, buf.iProduct, LANG_EN_US, (BYTE *)&strDesc);
 8002a14:	e0bfbdc3 	ldbu	r2,-265(fp)
 8002a18:	10803fcc 	andi	r2,r2,255
 8002a1c:	e0ffbe84 	addi	r3,fp,-262
 8002a20:	d8c00415 	stw	r3,16(sp)
 8002a24:	00c00084 	movi	r3,2
 8002a28:	d8c00315 	stw	r3,12(sp)
 8002a2c:	00c10244 	movi	r3,1033
 8002a30:	d8c00215 	stw	r3,8(sp)
 8002a34:	00c000c4 	movi	r3,3
 8002a38:	d8c00115 	stw	r3,4(sp)
 8002a3c:	d8800015 	stw	r2,0(sp)
 8002a40:	01c00184 	movi	r7,6
 8002a44:	01802004 	movi	r6,128
 8002a48:	000b883a 	mov	r5,zero
 8002a4c:	0009883a 	mov	r4,zero
 8002a50:	80020600 	call	8002060 <XferCtrlReq>
 8002a54:	e0bfb985 	stb	r2,-282(fp)
                			rcode = XferGetStrDescr( 0, 0, strDesc.bLength, buf.iProduct, LANG_EN_US, (BYTE *)&strDesc);
 8002a58:	e0bfbdc3 	ldbu	r2,-265(fp)
 8002a5c:	10803fcc 	andi	r2,r2,255
 8002a60:	e0ffbe83 	ldbu	r3,-262(fp)
 8002a64:	18c03fcc 	andi	r3,r3,255
 8002a68:	e13fbe84 	addi	r4,fp,-262
 8002a6c:	d9000415 	stw	r4,16(sp)
 8002a70:	d8c00315 	stw	r3,12(sp)
 8002a74:	00c10244 	movi	r3,1033
 8002a78:	d8c00215 	stw	r3,8(sp)
 8002a7c:	00c000c4 	movi	r3,3
 8002a80:	d8c00115 	stw	r3,4(sp)
 8002a84:	d8800015 	stw	r2,0(sp)
 8002a88:	01c00184 	movi	r7,6
 8002a8c:	01802004 	movi	r6,128
 8002a90:	000b883a 	mov	r5,zero
 8002a94:	0009883a 	mov	r4,zero
 8002a98:	80020600 	call	8002060 <XferCtrlReq>
 8002a9c:	e0bfb985 	stb	r2,-282(fp)
                			printf ("Product string(%i): %s\n", buf.iProduct, ConvUTF8ToStr(strDesc.bString, (strDesc.bLength>>1)-1));
 8002aa0:	e0bfbdc3 	ldbu	r2,-265(fp)
 8002aa4:	14003fcc 	andi	r16,r2,255
 8002aa8:	e0bfbe83 	ldbu	r2,-262(fp)
 8002aac:	10803fcc 	andi	r2,r2,255
 8002ab0:	1004d07a 	srli	r2,r2,1
 8002ab4:	10bfffc4 	addi	r2,r2,-1
 8002ab8:	10c03fcc 	andi	r3,r2,255
 8002abc:	e0bfbe84 	addi	r2,fp,-262
 8002ac0:	10800084 	addi	r2,r2,2
 8002ac4:	180b883a 	mov	r5,r3
 8002ac8:	1009883a 	mov	r4,r2
 8002acc:	8002e740 	call	8002e74 <ConvUTF8ToStr>
 8002ad0:	100d883a 	mov	r6,r2
 8002ad4:	800b883a 	mov	r5,r16
 8002ad8:	01020074 	movhi	r4,2049
 8002adc:	21164104 	addi	r4,r4,22788
 8002ae0:	8003cf80 	call	8003cf8 <printf>
                		}
                        usb_task_state = USB_STATE_ADDRESSING;
 8002ae4:	00800804 	movi	r2,32
 8002ae8:	d0a00305 	stb	r2,-32756(gp)
                    else {
                        usb_error = rcode;
                        last_usb_task_state = usb_task_state;
                        usb_task_state = USB_STATE_ERROR;
                    }
                    break;//case( USB_ATTACHED_SUBSTATE_GET_DEVICE_DESCRIPTOR_SIZE ):
 8002aec:	00000a06 	br	8002b18 <USB_Task+0x46c>
                		}
                        usb_task_state = USB_STATE_ADDRESSING;

                    }
                    else {
                        usb_error = rcode;
 8002af0:	e0bfb983 	ldbu	r2,-282(fp)
 8002af4:	d0a6f645 	stb	r2,-25639(gp)
                        last_usb_task_state = usb_task_state;
 8002af8:	d0a00303 	ldbu	r2,-32756(gp)
 8002afc:	d0a6f405 	stb	r2,-25648(gp)
                        usb_task_state = USB_STATE_ERROR;
 8002b00:	00bfffc4 	movi	r2,-1
 8002b04:	d0a00305 	stb	r2,-32756(gp)
                    }
                    break;//case( USB_ATTACHED_SUBSTATE_GET_DEVICE_DESCRIPTOR_SIZE ):
 8002b08:	00000306 	br	8002b18 <USB_Task+0x46c>
                    break;//case( USB_STATE_ATTACHED )
                case( USB_ATTACHED_SUBSTATE_SETTLE ):   //waiting for settle timer to expire
                    if( (alt_nticks()*1000)/alt_ticks_per_second() > usb_delay ) {
                        usb_task_state = USB_ATTACHED_SUBSTATE_RESET_DEVICE;
                    }
                    break;//case( USB_ATTACHED_SUBSTATE_SETTLE )
 8002b0c:	0001883a 	nop
 8002b10:	00006b06 	br	8002cc0 <USB_Task+0x614>
                    if(( MAXreg_rd( rHCTL ) & bmBUSRST ) == 0 ) {
                        tmpdata = MAXreg_rd( rMODE ) | bmSOFKAENAB;                 //start SOF generation
                        MAXreg_wr( rMODE, tmpdata );
                        usb_task_state = USB_ATTACHED_SUBSTATE_WAIT_SOF;
                    }
                    break;//case( USB_ATTACHED_SUBSTATE_WAIT_RESET_COMPLETE )
 8002b14:	0001883a 	nop
                        last_usb_task_state = usb_task_state;
                        usb_task_state = USB_STATE_ERROR;
                    }
                    break;//case( USB_ATTACHED_SUBSTATE_GET_DEVICE_DESCRIPTOR_SIZE ):
            }//switch( usb_task_state )
            break;//case ( USB_STATE_ATTACHED )
 8002b18:	00006906 	br	8002cc0 <USB_Task+0x614>
        case( USB_STATE_ADDRESSING ):   //give device an address
            for( i = 1; i < USB_NUMDEVICES; i++ ) {
 8002b1c:	00800044 	movi	r2,1
 8002b20:	e0bfb905 	stb	r2,-284(fp)
 8002b24:	00002d06 	br	8002bdc <USB_Task+0x530>
                if( devtable[ i ].epinfo == NULL ) {
 8002b28:	e0ffb903 	ldbu	r3,-284(fp)
 8002b2c:	008200b4 	movhi	r2,2050
 8002b30:	10a53004 	addi	r2,r2,-27456
 8002b34:	180690fa 	slli	r3,r3,3
 8002b38:	10c5883a 	add	r2,r2,r3
 8002b3c:	10800017 	ldw	r2,0(r2)
 8002b40:	1000231e 	bne	r2,zero,8002bd0 <USB_Task+0x524>
                    devtable[ i ].epinfo = devtable[ 0 ].epinfo;        //set correct MaxPktSize
 8002b44:	e13fb903 	ldbu	r4,-284(fp)
 8002b48:	008200b4 	movhi	r2,2050
 8002b4c:	10a53004 	addi	r2,r2,-27456
 8002b50:	10c00017 	ldw	r3,0(r2)
 8002b54:	008200b4 	movhi	r2,2050
 8002b58:	10a53004 	addi	r2,r2,-27456
 8002b5c:	200890fa 	slli	r4,r4,3
 8002b60:	1105883a 	add	r2,r2,r4
 8002b64:	10c00015 	stw	r3,0(r2)
                    //devtable[ i ].epinfo->MaxPktSize = devtable[ 0 ].epinfo->MaxPktSize;  //copy uninitialized device record to have correct MaxPktSize
                    rcode = XferSetAddr( 0, 0, i );
 8002b68:	e0bfb903 	ldbu	r2,-284(fp)
 8002b6c:	d8000415 	stw	zero,16(sp)
 8002b70:	d8000315 	stw	zero,12(sp)
 8002b74:	d8000215 	stw	zero,8(sp)
 8002b78:	d8000115 	stw	zero,4(sp)
 8002b7c:	d8800015 	stw	r2,0(sp)
 8002b80:	01c00144 	movi	r7,5
 8002b84:	000d883a 	mov	r6,zero
 8002b88:	000b883a 	mov	r5,zero
 8002b8c:	0009883a 	mov	r4,zero
 8002b90:	80020600 	call	8002060 <XferCtrlReq>
 8002b94:	e0bfb985 	stb	r2,-282(fp)
                    if( rcode == 0 ) {
 8002b98:	e0bfb983 	ldbu	r2,-282(fp)
 8002b9c:	1000051e 	bne	r2,zero,8002bb4 <USB_Task+0x508>
                        tmp_addr = i;
 8002ba0:	e0bfb903 	ldbu	r2,-284(fp)
 8002ba4:	d0a6f605 	stb	r2,-25640(gp)
                        usb_task_state = USB_STATE_CONFIGURING;
 8002ba8:	00800c04 	movi	r2,48
 8002bac:	d0a00305 	stb	r2,-32756(gp)
                    else {
                        usb_error = rcode;          //set address error
                        last_usb_task_state = usb_task_state;
                        usb_task_state = USB_STATE_ERROR;
                    }
                    break;  //break if address assigned or error occurred during address assignment attempt
 8002bb0:	00000d06 	br	8002be8 <USB_Task+0x53c>
                    if( rcode == 0 ) {
                        tmp_addr = i;
                        usb_task_state = USB_STATE_CONFIGURING;
                    }
                    else {
                        usb_error = rcode;          //set address error
 8002bb4:	e0bfb983 	ldbu	r2,-282(fp)
 8002bb8:	d0a6f645 	stb	r2,-25639(gp)
                        last_usb_task_state = usb_task_state;
 8002bbc:	d0a00303 	ldbu	r2,-32756(gp)
 8002bc0:	d0a6f405 	stb	r2,-25648(gp)
                        usb_task_state = USB_STATE_ERROR;
 8002bc4:	00bfffc4 	movi	r2,-1
 8002bc8:	d0a00305 	stb	r2,-32756(gp)
                    }
                    break;  //break if address assigned or error occurred during address assignment attempt
 8002bcc:	00000606 	br	8002be8 <USB_Task+0x53c>
                    }
                    break;//case( USB_ATTACHED_SUBSTATE_GET_DEVICE_DESCRIPTOR_SIZE ):
            }//switch( usb_task_state )
            break;//case ( USB_STATE_ATTACHED )
        case( USB_STATE_ADDRESSING ):   //give device an address
            for( i = 1; i < USB_NUMDEVICES; i++ ) {
 8002bd0:	e0bfb903 	ldbu	r2,-284(fp)
 8002bd4:	10800044 	addi	r2,r2,1
 8002bd8:	e0bfb905 	stb	r2,-284(fp)
 8002bdc:	e0bfb903 	ldbu	r2,-284(fp)
 8002be0:	10800230 	cmpltui	r2,r2,8
 8002be4:	103fd01e 	bne	r2,zero,8002b28 <__alt_data_end+0xfc002b28>
                        usb_task_state = USB_STATE_ERROR;
                    }
                    break;  //break if address assigned or error occurred during address assignment attempt
                }
            }
            if( usb_task_state == USB_STATE_ADDRESSING ) {
 8002be8:	d0a00303 	ldbu	r2,-32756(gp)
 8002bec:	10803fcc 	andi	r2,r2,255
 8002bf0:	10800818 	cmpnei	r2,r2,32
 8002bf4:	1000341e 	bne	r2,zero,8002cc8 <USB_Task+0x61c>
                usb_error = 0xfe;
 8002bf8:	00bfff84 	movi	r2,-2
 8002bfc:	d0a6f645 	stb	r2,-25639(gp)
                last_usb_task_state = usb_task_state;
 8002c00:	d0a00303 	ldbu	r2,-32756(gp)
 8002c04:	d0a6f405 	stb	r2,-25648(gp)
                usb_task_state = USB_STATE_ERROR;
 8002c08:	00bfffc4 	movi	r2,-1
 8002c0c:	d0a00305 	stb	r2,-32756(gp)
            }
            break;//case ( USB_STATE_ADDRESSING )
 8002c10:	00002d06 	br	8002cc8 <USB_Task+0x61c>
        case( USB_STATE_CONFIGURING ):              //checking for driver
			//run device class probes until one returns TRUE
            for( i = 0; i < USB_NUMCLASSES; i++ ) {
 8002c14:	e03fb905 	stb	zero,-284(fp)
 8002c18:	00001706 	br	8002c78 <USB_Task+0x5cc>
                rcode = ClientDriverTable[ i ].Initialize( tmp_addr, 0 );
 8002c1c:	e0bfb903 	ldbu	r2,-284(fp)
 8002c20:	04020074 	movhi	r16,2049
 8002c24:	84171204 	addi	r16,r16,23624
 8002c28:	01400304 	movi	r5,12
 8002c2c:	1009883a 	mov	r4,r2
 8002c30:	800310c0 	call	800310c <__mulsi3>
 8002c34:	8085883a 	add	r2,r16,r2
 8002c38:	10800017 	ldw	r2,0(r2)
 8002c3c:	d0e6f603 	ldbu	r3,-25640(gp)
 8002c40:	18c03fcc 	andi	r3,r3,255
 8002c44:	000b883a 	mov	r5,zero
 8002c48:	1809883a 	mov	r4,r3
 8002c4c:	103ee83a 	callr	r2
 8002c50:	e0bfb985 	stb	r2,-282(fp)
                if( rcode == TRUE ) {
 8002c54:	e0bfb983 	ldbu	r2,-282(fp)
 8002c58:	10800058 	cmpnei	r2,r2,1
 8002c5c:	1000031e 	bne	r2,zero,8002c6c <USB_Task+0x5c0>
			        usb_task_state = USB_STATE_RUNNING;
 8002c60:	00801004 	movi	r2,64
 8002c64:	d0a00305 	stb	r2,-32756(gp)
                    break;
 8002c68:	00000606 	br	8002c84 <USB_Task+0x5d8>
                usb_task_state = USB_STATE_ERROR;
            }
            break;//case ( USB_STATE_ADDRESSING )
        case( USB_STATE_CONFIGURING ):              //checking for driver
			//run device class probes until one returns TRUE
            for( i = 0; i < USB_NUMCLASSES; i++ ) {
 8002c6c:	e0bfb903 	ldbu	r2,-284(fp)
 8002c70:	10800044 	addi	r2,r2,1
 8002c74:	e0bfb905 	stb	r2,-284(fp)
 8002c78:	e0bfb903 	ldbu	r2,-284(fp)
 8002c7c:	10800130 	cmpltui	r2,r2,4
 8002c80:	103fe61e 	bne	r2,zero,8002c1c <__alt_data_end+0xfc002c1c>
                if( rcode == TRUE ) {
			        usb_task_state = USB_STATE_RUNNING;
                    break;
                }
            }
            if( usb_task_state == USB_STATE_CONFIGURING ) {
 8002c84:	d0a00303 	ldbu	r2,-32756(gp)
 8002c88:	10803fcc 	andi	r2,r2,255
 8002c8c:	10800c18 	cmpnei	r2,r2,48
 8002c90:	10000f1e 	bne	r2,zero,8002cd0 <USB_Task+0x624>
                usb_error = 0xfd;
 8002c94:	00bfff44 	movi	r2,-3
 8002c98:	d0a6f645 	stb	r2,-25639(gp)
                last_usb_task_state = usb_task_state;
 8002c9c:	d0a00303 	ldbu	r2,-32756(gp)
 8002ca0:	d0a6f405 	stb	r2,-25648(gp)
                usb_task_state = USB_STATE_ERROR;
 8002ca4:	00bfffc4 	movi	r2,-1
 8002ca8:	d0a00305 	stb	r2,-32756(gp)
            }
            break;//( USB_STATE_CONFIGURING )
 8002cac:	00000806 	br	8002cd0 <USB_Task+0x624>
        case( USB_STATE_RUNNING ):
          //vTaskDelay( LED_RATE );
            break;//( USB_STATE_RUNNING )
 8002cb0:	0001883a 	nop
 8002cb4:	00000706 	br	8002cd4 <USB_Task+0x628>
        case( USB_STATE_ERROR ):
            //vTaskDelay( LED_RATE ); //stay here if error
            break;//( USB_STATE_ERROR )
 8002cb8:	0001883a 	nop
 8002cbc:	00000506 	br	8002cd4 <USB_Task+0x628>
                        last_usb_task_state = usb_task_state;
                        usb_task_state = USB_STATE_ERROR;
                    }
                    break;//case( USB_ATTACHED_SUBSTATE_GET_DEVICE_DESCRIPTOR_SIZE ):
            }//switch( usb_task_state )
            break;//case ( USB_STATE_ATTACHED )
 8002cc0:	0001883a 	nop
 8002cc4:	00000306 	br	8002cd4 <USB_Task+0x628>
            if( usb_task_state == USB_STATE_ADDRESSING ) {
                usb_error = 0xfe;
                last_usb_task_state = usb_task_state;
                usb_task_state = USB_STATE_ERROR;
            }
            break;//case ( USB_STATE_ADDRESSING )
 8002cc8:	0001883a 	nop
 8002ccc:	00000106 	br	8002cd4 <USB_Task+0x628>
            if( usb_task_state == USB_STATE_CONFIGURING ) {
                usb_error = 0xfd;
                last_usb_task_state = usb_task_state;
                usb_task_state = USB_STATE_ERROR;
            }
            break;//( USB_STATE_CONFIGURING )
 8002cd0:	0001883a 	nop
            break;//( USB_STATE_ERROR )
        default:
            //Should never get here
            break;
    }//switch( usb_task_state & STATE_MASK )
}
 8002cd4:	0001883a 	nop
 8002cd8:	e6ffff04 	addi	sp,fp,-4
 8002cdc:	dfc00217 	ldw	ra,8(sp)
 8002ce0:	df000117 	ldw	fp,4(sp)
 8002ce4:	dc000017 	ldw	r16,0(sp)
 8002ce8:	dec00304 	addi	sp,sp,12
 8002cec:	f800283a 	ret

08002cf0 <MSDProbe>:

//place-holders for MSD (mass-storage device) drivers, we don't have them ported.
//returns TRUE if device is successfully identified and configured, otherwise returns FALSE
BOOL MSDProbe( BYTE addr, DWORD flags )
{
 8002cf0:	defffd04 	addi	sp,sp,-12
 8002cf4:	df000215 	stw	fp,8(sp)
 8002cf8:	df000204 	addi	fp,sp,8
 8002cfc:	2005883a 	mov	r2,r4
 8002d00:	e17fff15 	stw	r5,-4(fp)
 8002d04:	e0bffe05 	stb	r2,-8(fp)
    return( FALSE );
 8002d08:	0005883a 	mov	r2,zero
}
 8002d0c:	e037883a 	mov	sp,fp
 8002d10:	df000017 	ldw	fp,0(sp)
 8002d14:	dec00104 	addi	sp,sp,4
 8002d18:	f800283a 	ret

08002d1c <MSDEventHandler>:

BOOL MSDEventHandler( BYTE address, BYTE event, void *data, DWORD size )
{
 8002d1c:	defffb04 	addi	sp,sp,-20
 8002d20:	df000415 	stw	fp,16(sp)
 8002d24:	df000404 	addi	fp,sp,16
 8002d28:	2007883a 	mov	r3,r4
 8002d2c:	2805883a 	mov	r2,r5
 8002d30:	e1bffe15 	stw	r6,-8(fp)
 8002d34:	e1ffff15 	stw	r7,-4(fp)
 8002d38:	e0fffc05 	stb	r3,-16(fp)
 8002d3c:	e0bffd05 	stb	r2,-12(fp)

	return( FALSE );
 8002d40:	0005883a 	mov	r2,zero

}
 8002d44:	e037883a 	mov	sp,fp
 8002d48:	df000017 	ldw	fp,0(sp)
 8002d4c:	dec00104 	addi	sp,sp,4
 8002d50:	f800283a 	ret

08002d54 <CDCProbe>:
//CDC (communication device class also not supported)
BOOL CDCProbe( BYTE address, DWORD flags )
{
 8002d54:	defffd04 	addi	sp,sp,-12
 8002d58:	df000215 	stw	fp,8(sp)
 8002d5c:	df000204 	addi	fp,sp,8
 8002d60:	2005883a 	mov	r2,r4
 8002d64:	e17fff15 	stw	r5,-4(fp)
 8002d68:	e0bffe05 	stb	r2,-8(fp)

	return( FALSE );
 8002d6c:	0005883a 	mov	r2,zero

}
 8002d70:	e037883a 	mov	sp,fp
 8002d74:	df000017 	ldw	fp,0(sp)
 8002d78:	dec00104 	addi	sp,sp,4
 8002d7c:	f800283a 	ret

08002d80 <CDCEventHandler>:

BOOL CDCEventHandler( BYTE address, BYTE event, void *data, DWORD size )
{
 8002d80:	defffb04 	addi	sp,sp,-20
 8002d84:	df000415 	stw	fp,16(sp)
 8002d88:	df000404 	addi	fp,sp,16
 8002d8c:	2007883a 	mov	r3,r4
 8002d90:	2805883a 	mov	r2,r5
 8002d94:	e1bffe15 	stw	r6,-8(fp)
 8002d98:	e1ffff15 	stw	r7,-4(fp)
 8002d9c:	e0fffc05 	stb	r3,-16(fp)
 8002da0:	e0bffd05 	stb	r2,-12(fp)
	return( FALSE );
 8002da4:	0005883a 	mov	r2,zero
}
 8002da8:	e037883a 	mov	sp,fp
 8002dac:	df000017 	ldw	fp,0(sp)
 8002db0:	dec00104 	addi	sp,sp,4
 8002db4:	f800283a 	ret

08002db8 <DummyProbe>:

BOOL DummyProbe( BYTE address , DWORD flags )
{
 8002db8:	defffd04 	addi	sp,sp,-12
 8002dbc:	df000215 	stw	fp,8(sp)
 8002dc0:	df000204 	addi	fp,sp,8
 8002dc4:	2005883a 	mov	r2,r4
 8002dc8:	e17fff15 	stw	r5,-4(fp)
 8002dcc:	e0bffe05 	stb	r2,-8(fp)
	return( FALSE );
 8002dd0:	0005883a 	mov	r2,zero
}
 8002dd4:	e037883a 	mov	sp,fp
 8002dd8:	df000017 	ldw	fp,0(sp)
 8002ddc:	dec00104 	addi	sp,sp,4
 8002de0:	f800283a 	ret

08002de4 <DummyEventHandler>:

BOOL DummyEventHandler( BYTE address, BYTE event, void *data, DWORD size )
{
 8002de4:	defffb04 	addi	sp,sp,-20
 8002de8:	df000415 	stw	fp,16(sp)
 8002dec:	df000404 	addi	fp,sp,16
 8002df0:	2007883a 	mov	r3,r4
 8002df4:	2805883a 	mov	r2,r5
 8002df8:	e1bffe15 	stw	r6,-8(fp)
 8002dfc:	e1ffff15 	stw	r7,-4(fp)
 8002e00:	e0fffc05 	stb	r3,-16(fp)
 8002e04:	e0bffd05 	stb	r2,-12(fp)
	return( FALSE );
 8002e08:	0005883a 	mov	r2,zero
}
 8002e0c:	e037883a 	mov	sp,fp
 8002e10:	df000017 	ldw	fp,0(sp)
 8002e14:	dec00104 	addi	sp,sp,4
 8002e18:	f800283a 	ret

08002e1c <GetUsbTaskState>:
/* Function to access usb_task_state variable from outside */
BYTE GetUsbTaskState( void )
{
 8002e1c:	deffff04 	addi	sp,sp,-4
 8002e20:	df000015 	stw	fp,0(sp)
 8002e24:	d839883a 	mov	fp,sp
    return( usb_task_state );
 8002e28:	d0a00303 	ldbu	r2,-32756(gp)
}
 8002e2c:	e037883a 	mov	sp,fp
 8002e30:	df000017 	ldw	fp,0(sp)
 8002e34:	dec00104 	addi	sp,sp,4
 8002e38:	f800283a 	ret

08002e3c <GetDevtable>:
/* Function to access devtable[] from outside */
DEV_RECORD* GetDevtable( BYTE index )
{
 8002e3c:	defffe04 	addi	sp,sp,-8
 8002e40:	df000115 	stw	fp,4(sp)
 8002e44:	df000104 	addi	fp,sp,4
 8002e48:	2005883a 	mov	r2,r4
 8002e4c:	e0bfff05 	stb	r2,-4(fp)
    return( &devtable[ index ] );
 8002e50:	e0bfff03 	ldbu	r2,-4(fp)
 8002e54:	100690fa 	slli	r3,r2,3
 8002e58:	008200b4 	movhi	r2,2050
 8002e5c:	10a53004 	addi	r2,r2,-27456
 8002e60:	1885883a 	add	r2,r3,r2
}
 8002e64:	e037883a 	mov	sp,fp
 8002e68:	df000017 	ldw	fp,0(sp)
 8002e6c:	dec00104 	addi	sp,sp,4
 8002e70:	f800283a 	ret

08002e74 <ConvUTF8ToStr>:

char* ConvUTF8ToStr(BYTE* utf8, BYTE length)
{
 8002e74:	defffc04 	addi	sp,sp,-16
 8002e78:	df000315 	stw	fp,12(sp)
 8002e7c:	df000304 	addi	fp,sp,12
 8002e80:	e13ffe15 	stw	r4,-8(fp)
 8002e84:	2805883a 	mov	r2,r5
 8002e88:	e0bfff05 	stb	r2,-4(fp)
	BYTE i;
	for (i = 0; i < length; i++)
 8002e8c:	e03ffd05 	stb	zero,-12(fp)
 8002e90:	00000d06 	br	8002ec8 <ConvUTF8ToStr+0x54>
	{
		utf8[i] = utf8[2*i];
 8002e94:	e0bffd03 	ldbu	r2,-12(fp)
 8002e98:	e0fffe17 	ldw	r3,-8(fp)
 8002e9c:	1887883a 	add	r3,r3,r2
 8002ea0:	e0bffd03 	ldbu	r2,-12(fp)
 8002ea4:	1085883a 	add	r2,r2,r2
 8002ea8:	1009883a 	mov	r4,r2
 8002eac:	e0bffe17 	ldw	r2,-8(fp)
 8002eb0:	1105883a 	add	r2,r2,r4
 8002eb4:	10800003 	ldbu	r2,0(r2)
 8002eb8:	18800005 	stb	r2,0(r3)
}

char* ConvUTF8ToStr(BYTE* utf8, BYTE length)
{
	BYTE i;
	for (i = 0; i < length; i++)
 8002ebc:	e0bffd03 	ldbu	r2,-12(fp)
 8002ec0:	10800044 	addi	r2,r2,1
 8002ec4:	e0bffd05 	stb	r2,-12(fp)
 8002ec8:	e0fffd03 	ldbu	r3,-12(fp)
 8002ecc:	e0bfff03 	ldbu	r2,-4(fp)
 8002ed0:	18bff036 	bltu	r3,r2,8002e94 <__alt_data_end+0xfc002e94>
	{
		utf8[i] = utf8[2*i];
	}
	utf8[length] = 0x00;
 8002ed4:	e0bfff03 	ldbu	r2,-4(fp)
 8002ed8:	e0fffe17 	ldw	r3,-8(fp)
 8002edc:	1885883a 	add	r2,r3,r2
 8002ee0:	10000005 	stb	zero,0(r2)
	return (char*)utf8;
 8002ee4:	e0bffe17 	ldw	r2,-8(fp)
}
 8002ee8:	e037883a 	mov	sp,fp
 8002eec:	df000017 	ldw	fp,0(sp)
 8002ef0:	dec00104 	addi	sp,sp,4
 8002ef4:	f800283a 	ret

08002ef8 <__fixunssfsi>:
 8002ef8:	defffd04 	addi	sp,sp,-12
 8002efc:	dc000015 	stw	r16,0(sp)
 8002f00:	0413c034 	movhi	r16,20224
 8002f04:	800b883a 	mov	r5,r16
 8002f08:	dc400115 	stw	r17,4(sp)
 8002f0c:	dfc00215 	stw	ra,8(sp)
 8002f10:	2023883a 	mov	r17,r4
 8002f14:	80031340 	call	8003134 <__gesf2>
 8002f18:	1000070e 	bge	r2,zero,8002f38 <__fixunssfsi+0x40>
 8002f1c:	8809883a 	mov	r4,r17
 8002f20:	8003b040 	call	8003b04 <__fixsfsi>
 8002f24:	dfc00217 	ldw	ra,8(sp)
 8002f28:	dc400117 	ldw	r17,4(sp)
 8002f2c:	dc000017 	ldw	r16,0(sp)
 8002f30:	dec00304 	addi	sp,sp,12
 8002f34:	f800283a 	ret
 8002f38:	800b883a 	mov	r5,r16
 8002f3c:	8809883a 	mov	r4,r17
 8002f40:	80036200 	call	8003620 <__subsf3>
 8002f44:	1009883a 	mov	r4,r2
 8002f48:	8003b040 	call	8003b04 <__fixsfsi>
 8002f4c:	00e00034 	movhi	r3,32768
 8002f50:	10c5883a 	add	r2,r2,r3
 8002f54:	003ff306 	br	8002f24 <__alt_data_end+0xfc002f24>

08002f58 <__divsi3>:
 8002f58:	20001b16 	blt	r4,zero,8002fc8 <__divsi3+0x70>
 8002f5c:	000f883a 	mov	r7,zero
 8002f60:	28001616 	blt	r5,zero,8002fbc <__divsi3+0x64>
 8002f64:	200d883a 	mov	r6,r4
 8002f68:	29001a2e 	bgeu	r5,r4,8002fd4 <__divsi3+0x7c>
 8002f6c:	00800804 	movi	r2,32
 8002f70:	00c00044 	movi	r3,1
 8002f74:	00000106 	br	8002f7c <__divsi3+0x24>
 8002f78:	10000d26 	beq	r2,zero,8002fb0 <__divsi3+0x58>
 8002f7c:	294b883a 	add	r5,r5,r5
 8002f80:	10bfffc4 	addi	r2,r2,-1
 8002f84:	18c7883a 	add	r3,r3,r3
 8002f88:	293ffb36 	bltu	r5,r4,8002f78 <__alt_data_end+0xfc002f78>
 8002f8c:	0005883a 	mov	r2,zero
 8002f90:	18000726 	beq	r3,zero,8002fb0 <__divsi3+0x58>
 8002f94:	0005883a 	mov	r2,zero
 8002f98:	31400236 	bltu	r6,r5,8002fa4 <__divsi3+0x4c>
 8002f9c:	314dc83a 	sub	r6,r6,r5
 8002fa0:	10c4b03a 	or	r2,r2,r3
 8002fa4:	1806d07a 	srli	r3,r3,1
 8002fa8:	280ad07a 	srli	r5,r5,1
 8002fac:	183ffa1e 	bne	r3,zero,8002f98 <__alt_data_end+0xfc002f98>
 8002fb0:	38000126 	beq	r7,zero,8002fb8 <__divsi3+0x60>
 8002fb4:	0085c83a 	sub	r2,zero,r2
 8002fb8:	f800283a 	ret
 8002fbc:	014bc83a 	sub	r5,zero,r5
 8002fc0:	39c0005c 	xori	r7,r7,1
 8002fc4:	003fe706 	br	8002f64 <__alt_data_end+0xfc002f64>
 8002fc8:	0109c83a 	sub	r4,zero,r4
 8002fcc:	01c00044 	movi	r7,1
 8002fd0:	003fe306 	br	8002f60 <__alt_data_end+0xfc002f60>
 8002fd4:	00c00044 	movi	r3,1
 8002fd8:	003fee06 	br	8002f94 <__alt_data_end+0xfc002f94>

08002fdc <__modsi3>:
 8002fdc:	20001716 	blt	r4,zero,800303c <__modsi3+0x60>
 8002fe0:	000f883a 	mov	r7,zero
 8002fe4:	2005883a 	mov	r2,r4
 8002fe8:	28001216 	blt	r5,zero,8003034 <__modsi3+0x58>
 8002fec:	2900162e 	bgeu	r5,r4,8003048 <__modsi3+0x6c>
 8002ff0:	01800804 	movi	r6,32
 8002ff4:	00c00044 	movi	r3,1
 8002ff8:	00000106 	br	8003000 <__modsi3+0x24>
 8002ffc:	30000a26 	beq	r6,zero,8003028 <__modsi3+0x4c>
 8003000:	294b883a 	add	r5,r5,r5
 8003004:	31bfffc4 	addi	r6,r6,-1
 8003008:	18c7883a 	add	r3,r3,r3
 800300c:	293ffb36 	bltu	r5,r4,8002ffc <__alt_data_end+0xfc002ffc>
 8003010:	18000526 	beq	r3,zero,8003028 <__modsi3+0x4c>
 8003014:	1806d07a 	srli	r3,r3,1
 8003018:	11400136 	bltu	r2,r5,8003020 <__modsi3+0x44>
 800301c:	1145c83a 	sub	r2,r2,r5
 8003020:	280ad07a 	srli	r5,r5,1
 8003024:	183ffb1e 	bne	r3,zero,8003014 <__alt_data_end+0xfc003014>
 8003028:	38000126 	beq	r7,zero,8003030 <__modsi3+0x54>
 800302c:	0085c83a 	sub	r2,zero,r2
 8003030:	f800283a 	ret
 8003034:	014bc83a 	sub	r5,zero,r5
 8003038:	003fec06 	br	8002fec <__alt_data_end+0xfc002fec>
 800303c:	0109c83a 	sub	r4,zero,r4
 8003040:	01c00044 	movi	r7,1
 8003044:	003fe706 	br	8002fe4 <__alt_data_end+0xfc002fe4>
 8003048:	00c00044 	movi	r3,1
 800304c:	003ff106 	br	8003014 <__alt_data_end+0xfc003014>

08003050 <__udivsi3>:
 8003050:	200d883a 	mov	r6,r4
 8003054:	2900152e 	bgeu	r5,r4,80030ac <__udivsi3+0x5c>
 8003058:	28001416 	blt	r5,zero,80030ac <__udivsi3+0x5c>
 800305c:	00800804 	movi	r2,32
 8003060:	00c00044 	movi	r3,1
 8003064:	00000206 	br	8003070 <__udivsi3+0x20>
 8003068:	10000e26 	beq	r2,zero,80030a4 <__udivsi3+0x54>
 800306c:	28000516 	blt	r5,zero,8003084 <__udivsi3+0x34>
 8003070:	294b883a 	add	r5,r5,r5
 8003074:	10bfffc4 	addi	r2,r2,-1
 8003078:	18c7883a 	add	r3,r3,r3
 800307c:	293ffa36 	bltu	r5,r4,8003068 <__alt_data_end+0xfc003068>
 8003080:	18000826 	beq	r3,zero,80030a4 <__udivsi3+0x54>
 8003084:	0005883a 	mov	r2,zero
 8003088:	31400236 	bltu	r6,r5,8003094 <__udivsi3+0x44>
 800308c:	314dc83a 	sub	r6,r6,r5
 8003090:	10c4b03a 	or	r2,r2,r3
 8003094:	1806d07a 	srli	r3,r3,1
 8003098:	280ad07a 	srli	r5,r5,1
 800309c:	183ffa1e 	bne	r3,zero,8003088 <__alt_data_end+0xfc003088>
 80030a0:	f800283a 	ret
 80030a4:	0005883a 	mov	r2,zero
 80030a8:	f800283a 	ret
 80030ac:	00c00044 	movi	r3,1
 80030b0:	003ff406 	br	8003084 <__alt_data_end+0xfc003084>

080030b4 <__umodsi3>:
 80030b4:	2005883a 	mov	r2,r4
 80030b8:	2900122e 	bgeu	r5,r4,8003104 <__umodsi3+0x50>
 80030bc:	28001116 	blt	r5,zero,8003104 <__umodsi3+0x50>
 80030c0:	01800804 	movi	r6,32
 80030c4:	00c00044 	movi	r3,1
 80030c8:	00000206 	br	80030d4 <__umodsi3+0x20>
 80030cc:	30000c26 	beq	r6,zero,8003100 <__umodsi3+0x4c>
 80030d0:	28000516 	blt	r5,zero,80030e8 <__umodsi3+0x34>
 80030d4:	294b883a 	add	r5,r5,r5
 80030d8:	31bfffc4 	addi	r6,r6,-1
 80030dc:	18c7883a 	add	r3,r3,r3
 80030e0:	293ffa36 	bltu	r5,r4,80030cc <__alt_data_end+0xfc0030cc>
 80030e4:	18000626 	beq	r3,zero,8003100 <__umodsi3+0x4c>
 80030e8:	1806d07a 	srli	r3,r3,1
 80030ec:	11400136 	bltu	r2,r5,80030f4 <__umodsi3+0x40>
 80030f0:	1145c83a 	sub	r2,r2,r5
 80030f4:	280ad07a 	srli	r5,r5,1
 80030f8:	183ffb1e 	bne	r3,zero,80030e8 <__alt_data_end+0xfc0030e8>
 80030fc:	f800283a 	ret
 8003100:	f800283a 	ret
 8003104:	00c00044 	movi	r3,1
 8003108:	003ff706 	br	80030e8 <__alt_data_end+0xfc0030e8>

0800310c <__mulsi3>:
 800310c:	0005883a 	mov	r2,zero
 8003110:	20000726 	beq	r4,zero,8003130 <__mulsi3+0x24>
 8003114:	20c0004c 	andi	r3,r4,1
 8003118:	2008d07a 	srli	r4,r4,1
 800311c:	18000126 	beq	r3,zero,8003124 <__mulsi3+0x18>
 8003120:	1145883a 	add	r2,r2,r5
 8003124:	294b883a 	add	r5,r5,r5
 8003128:	203ffa1e 	bne	r4,zero,8003114 <__alt_data_end+0xfc003114>
 800312c:	f800283a 	ret
 8003130:	f800283a 	ret

08003134 <__gesf2>:
 8003134:	2004d5fa 	srli	r2,r4,23
 8003138:	2806d5fa 	srli	r3,r5,23
 800313c:	01802034 	movhi	r6,128
 8003140:	31bfffc4 	addi	r6,r6,-1
 8003144:	10803fcc 	andi	r2,r2,255
 8003148:	01c03fc4 	movi	r7,255
 800314c:	3110703a 	and	r8,r6,r4
 8003150:	18c03fcc 	andi	r3,r3,255
 8003154:	314c703a 	and	r6,r6,r5
 8003158:	2008d7fa 	srli	r4,r4,31
 800315c:	280ad7fa 	srli	r5,r5,31
 8003160:	11c01926 	beq	r2,r7,80031c8 <__gesf2+0x94>
 8003164:	01c03fc4 	movi	r7,255
 8003168:	19c00f26 	beq	r3,r7,80031a8 <__gesf2+0x74>
 800316c:	1000061e 	bne	r2,zero,8003188 <__gesf2+0x54>
 8003170:	400f003a 	cmpeq	r7,r8,zero
 8003174:	1800071e 	bne	r3,zero,8003194 <__gesf2+0x60>
 8003178:	3000061e 	bne	r6,zero,8003194 <__gesf2+0x60>
 800317c:	0005883a 	mov	r2,zero
 8003180:	40000e1e 	bne	r8,zero,80031bc <__gesf2+0x88>
 8003184:	f800283a 	ret
 8003188:	18000a1e 	bne	r3,zero,80031b4 <__gesf2+0x80>
 800318c:	30000b26 	beq	r6,zero,80031bc <__gesf2+0x88>
 8003190:	000f883a 	mov	r7,zero
 8003194:	29403fcc 	andi	r5,r5,255
 8003198:	38000726 	beq	r7,zero,80031b8 <__gesf2+0x84>
 800319c:	28000826 	beq	r5,zero,80031c0 <__gesf2+0x8c>
 80031a0:	00800044 	movi	r2,1
 80031a4:	f800283a 	ret
 80031a8:	303ff026 	beq	r6,zero,800316c <__alt_data_end+0xfc00316c>
 80031ac:	00bfff84 	movi	r2,-2
 80031b0:	f800283a 	ret
 80031b4:	29403fcc 	andi	r5,r5,255
 80031b8:	21400526 	beq	r4,r5,80031d0 <__gesf2+0x9c>
 80031bc:	203ff826 	beq	r4,zero,80031a0 <__alt_data_end+0xfc0031a0>
 80031c0:	00bfffc4 	movi	r2,-1
 80031c4:	f800283a 	ret
 80031c8:	403fe626 	beq	r8,zero,8003164 <__alt_data_end+0xfc003164>
 80031cc:	003ff706 	br	80031ac <__alt_data_end+0xfc0031ac>
 80031d0:	18bffa16 	blt	r3,r2,80031bc <__alt_data_end+0xfc0031bc>
 80031d4:	10c00216 	blt	r2,r3,80031e0 <__gesf2+0xac>
 80031d8:	323ff836 	bltu	r6,r8,80031bc <__alt_data_end+0xfc0031bc>
 80031dc:	4180022e 	bgeu	r8,r6,80031e8 <__gesf2+0xb4>
 80031e0:	203fef1e 	bne	r4,zero,80031a0 <__alt_data_end+0xfc0031a0>
 80031e4:	003ff606 	br	80031c0 <__alt_data_end+0xfc0031c0>
 80031e8:	0005883a 	mov	r2,zero
 80031ec:	f800283a 	ret

080031f0 <__mulsf3>:
 80031f0:	defff504 	addi	sp,sp,-44
 80031f4:	dc000115 	stw	r16,4(sp)
 80031f8:	2020d5fa 	srli	r16,r4,23
 80031fc:	dd400615 	stw	r21,24(sp)
 8003200:	202ad7fa 	srli	r21,r4,31
 8003204:	dc800315 	stw	r18,12(sp)
 8003208:	04802034 	movhi	r18,128
 800320c:	df000915 	stw	fp,36(sp)
 8003210:	dd000515 	stw	r20,20(sp)
 8003214:	94bfffc4 	addi	r18,r18,-1
 8003218:	dfc00a15 	stw	ra,40(sp)
 800321c:	ddc00815 	stw	r23,32(sp)
 8003220:	dd800715 	stw	r22,28(sp)
 8003224:	dcc00415 	stw	r19,16(sp)
 8003228:	dc400215 	stw	r17,8(sp)
 800322c:	84003fcc 	andi	r16,r16,255
 8003230:	9124703a 	and	r18,r18,r4
 8003234:	a829883a 	mov	r20,r21
 8003238:	af003fcc 	andi	fp,r21,255
 800323c:	80005426 	beq	r16,zero,8003390 <__mulsf3+0x1a0>
 8003240:	00803fc4 	movi	r2,255
 8003244:	80802f26 	beq	r16,r2,8003304 <__mulsf3+0x114>
 8003248:	91002034 	orhi	r4,r18,128
 800324c:	202490fa 	slli	r18,r4,3
 8003250:	843fe044 	addi	r16,r16,-127
 8003254:	0023883a 	mov	r17,zero
 8003258:	002f883a 	mov	r23,zero
 800325c:	2804d5fa 	srli	r2,r5,23
 8003260:	282cd7fa 	srli	r22,r5,31
 8003264:	01002034 	movhi	r4,128
 8003268:	213fffc4 	addi	r4,r4,-1
 800326c:	10803fcc 	andi	r2,r2,255
 8003270:	2166703a 	and	r19,r4,r5
 8003274:	b1803fcc 	andi	r6,r22,255
 8003278:	10004c26 	beq	r2,zero,80033ac <__mulsf3+0x1bc>
 800327c:	00c03fc4 	movi	r3,255
 8003280:	10c04726 	beq	r2,r3,80033a0 <__mulsf3+0x1b0>
 8003284:	99002034 	orhi	r4,r19,128
 8003288:	202690fa 	slli	r19,r4,3
 800328c:	10bfe044 	addi	r2,r2,-127
 8003290:	0007883a 	mov	r3,zero
 8003294:	80a1883a 	add	r16,r16,r2
 8003298:	010003c4 	movi	r4,15
 800329c:	1c44b03a 	or	r2,r3,r17
 80032a0:	b56af03a 	xor	r21,r22,r21
 80032a4:	81c00044 	addi	r7,r16,1
 80032a8:	20806b36 	bltu	r4,r2,8003458 <__mulsf3+0x268>
 80032ac:	100490ba 	slli	r2,r2,2
 80032b0:	01020034 	movhi	r4,2048
 80032b4:	210cb104 	addi	r4,r4,12996
 80032b8:	1105883a 	add	r2,r2,r4
 80032bc:	10800017 	ldw	r2,0(r2)
 80032c0:	1000683a 	jmp	r2
 80032c4:	08003458 	cmpnei	zero,at,209
 80032c8:	08003318 	cmpnei	zero,at,204
 80032cc:	08003318 	cmpnei	zero,at,204
 80032d0:	08003314 	ori	zero,at,204
 80032d4:	0800343c 	xorhi	zero,at,208
 80032d8:	0800343c 	xorhi	zero,at,208
 80032dc:	08003428 	cmpgeui	zero,at,208
 80032e0:	08003314 	ori	zero,at,204
 80032e4:	0800343c 	xorhi	zero,at,208
 80032e8:	08003428 	cmpgeui	zero,at,208
 80032ec:	0800343c 	xorhi	zero,at,208
 80032f0:	08003314 	ori	zero,at,204
 80032f4:	08003448 	cmpgei	zero,at,209
 80032f8:	08003448 	cmpgei	zero,at,209
 80032fc:	08003448 	cmpgei	zero,at,209
 8003300:	08003558 	cmpnei	zero,at,213
 8003304:	90003b1e 	bne	r18,zero,80033f4 <__mulsf3+0x204>
 8003308:	04400204 	movi	r17,8
 800330c:	05c00084 	movi	r23,2
 8003310:	003fd206 	br	800325c <__alt_data_end+0xfc00325c>
 8003314:	302b883a 	mov	r21,r6
 8003318:	00800084 	movi	r2,2
 800331c:	18802626 	beq	r3,r2,80033b8 <__mulsf3+0x1c8>
 8003320:	008000c4 	movi	r2,3
 8003324:	1880b826 	beq	r3,r2,8003608 <__mulsf3+0x418>
 8003328:	00800044 	movi	r2,1
 800332c:	1880af1e 	bne	r3,r2,80035ec <__mulsf3+0x3fc>
 8003330:	a829883a 	mov	r20,r21
 8003334:	0007883a 	mov	r3,zero
 8003338:	0009883a 	mov	r4,zero
 800333c:	18803fcc 	andi	r2,r3,255
 8003340:	100695fa 	slli	r3,r2,23
 8003344:	a0803fcc 	andi	r2,r20,255
 8003348:	100a97fa 	slli	r5,r2,31
 800334c:	00802034 	movhi	r2,128
 8003350:	10bfffc4 	addi	r2,r2,-1
 8003354:	2084703a 	and	r2,r4,r2
 8003358:	10c4b03a 	or	r2,r2,r3
 800335c:	1144b03a 	or	r2,r2,r5
 8003360:	dfc00a17 	ldw	ra,40(sp)
 8003364:	df000917 	ldw	fp,36(sp)
 8003368:	ddc00817 	ldw	r23,32(sp)
 800336c:	dd800717 	ldw	r22,28(sp)
 8003370:	dd400617 	ldw	r21,24(sp)
 8003374:	dd000517 	ldw	r20,20(sp)
 8003378:	dcc00417 	ldw	r19,16(sp)
 800337c:	dc800317 	ldw	r18,12(sp)
 8003380:	dc400217 	ldw	r17,8(sp)
 8003384:	dc000117 	ldw	r16,4(sp)
 8003388:	dec00b04 	addi	sp,sp,44
 800338c:	f800283a 	ret
 8003390:	90000d1e 	bne	r18,zero,80033c8 <__mulsf3+0x1d8>
 8003394:	04400104 	movi	r17,4
 8003398:	05c00044 	movi	r23,1
 800339c:	003faf06 	br	800325c <__alt_data_end+0xfc00325c>
 80033a0:	9806c03a 	cmpne	r3,r19,zero
 80033a4:	18c00084 	addi	r3,r3,2
 80033a8:	003fba06 	br	8003294 <__alt_data_end+0xfc003294>
 80033ac:	9800141e 	bne	r19,zero,8003400 <__mulsf3+0x210>
 80033b0:	00c00044 	movi	r3,1
 80033b4:	003fb706 	br	8003294 <__alt_data_end+0xfc003294>
 80033b8:	a829883a 	mov	r20,r21
 80033bc:	00ffffc4 	movi	r3,-1
 80033c0:	0009883a 	mov	r4,zero
 80033c4:	003fdd06 	br	800333c <__alt_data_end+0xfc00333c>
 80033c8:	9009883a 	mov	r4,r18
 80033cc:	d9400015 	stw	r5,0(sp)
 80033d0:	8003c640 	call	8003c64 <__clzsi2>
 80033d4:	10fffec4 	addi	r3,r2,-5
 80033d8:	10801d84 	addi	r2,r2,118
 80033dc:	90e4983a 	sll	r18,r18,r3
 80033e0:	00a1c83a 	sub	r16,zero,r2
 80033e4:	0023883a 	mov	r17,zero
 80033e8:	002f883a 	mov	r23,zero
 80033ec:	d9400017 	ldw	r5,0(sp)
 80033f0:	003f9a06 	br	800325c <__alt_data_end+0xfc00325c>
 80033f4:	04400304 	movi	r17,12
 80033f8:	05c000c4 	movi	r23,3
 80033fc:	003f9706 	br	800325c <__alt_data_end+0xfc00325c>
 8003400:	9809883a 	mov	r4,r19
 8003404:	d9800015 	stw	r6,0(sp)
 8003408:	8003c640 	call	8003c64 <__clzsi2>
 800340c:	10fffec4 	addi	r3,r2,-5
 8003410:	10801d84 	addi	r2,r2,118
 8003414:	98e6983a 	sll	r19,r19,r3
 8003418:	0085c83a 	sub	r2,zero,r2
 800341c:	0007883a 	mov	r3,zero
 8003420:	d9800017 	ldw	r6,0(sp)
 8003424:	003f9b06 	br	8003294 <__alt_data_end+0xfc003294>
 8003428:	01002034 	movhi	r4,128
 800342c:	0029883a 	mov	r20,zero
 8003430:	213fffc4 	addi	r4,r4,-1
 8003434:	00ffffc4 	movi	r3,-1
 8003438:	003fc006 	br	800333c <__alt_data_end+0xfc00333c>
 800343c:	9027883a 	mov	r19,r18
 8003440:	b807883a 	mov	r3,r23
 8003444:	003fb406 	br	8003318 <__alt_data_end+0xfc003318>
 8003448:	9027883a 	mov	r19,r18
 800344c:	e02b883a 	mov	r21,fp
 8003450:	b807883a 	mov	r3,r23
 8003454:	003fb006 	br	8003318 <__alt_data_end+0xfc003318>
 8003458:	9028d43a 	srli	r20,r18,16
 800345c:	982cd43a 	srli	r22,r19,16
 8003460:	94bfffcc 	andi	r18,r18,65535
 8003464:	9cffffcc 	andi	r19,r19,65535
 8003468:	980b883a 	mov	r5,r19
 800346c:	9009883a 	mov	r4,r18
 8003470:	d9c00015 	stw	r7,0(sp)
 8003474:	800310c0 	call	800310c <__mulsi3>
 8003478:	a00b883a 	mov	r5,r20
 800347c:	9809883a 	mov	r4,r19
 8003480:	1023883a 	mov	r17,r2
 8003484:	800310c0 	call	800310c <__mulsi3>
 8003488:	a009883a 	mov	r4,r20
 800348c:	b00b883a 	mov	r5,r22
 8003490:	1027883a 	mov	r19,r2
 8003494:	800310c0 	call	800310c <__mulsi3>
 8003498:	b00b883a 	mov	r5,r22
 800349c:	9009883a 	mov	r4,r18
 80034a0:	1029883a 	mov	r20,r2
 80034a4:	800310c0 	call	800310c <__mulsi3>
 80034a8:	8806d43a 	srli	r3,r17,16
 80034ac:	14c5883a 	add	r2,r2,r19
 80034b0:	d9c00017 	ldw	r7,0(sp)
 80034b4:	1885883a 	add	r2,r3,r2
 80034b8:	14c0022e 	bgeu	r2,r19,80034c4 <__mulsf3+0x2d4>
 80034bc:	00c00074 	movhi	r3,1
 80034c0:	a0e9883a 	add	r20,r20,r3
 80034c4:	1026943a 	slli	r19,r2,16
 80034c8:	8c7fffcc 	andi	r17,r17,65535
 80034cc:	1004d43a 	srli	r2,r2,16
 80034d0:	9c63883a 	add	r17,r19,r17
 80034d4:	882691ba 	slli	r19,r17,6
 80034d8:	1505883a 	add	r2,r2,r20
 80034dc:	8822d6ba 	srli	r17,r17,26
 80034e0:	100891ba 	slli	r4,r2,6
 80034e4:	9826c03a 	cmpne	r19,r19,zero
 80034e8:	9c62b03a 	or	r17,r19,r17
 80034ec:	8926b03a 	or	r19,r17,r4
 80034f0:	9882002c 	andhi	r2,r19,2048
 80034f4:	10000426 	beq	r2,zero,8003508 <__mulsf3+0x318>
 80034f8:	9804d07a 	srli	r2,r19,1
 80034fc:	9900004c 	andi	r4,r19,1
 8003500:	3821883a 	mov	r16,r7
 8003504:	1126b03a 	or	r19,r2,r4
 8003508:	80c01fc4 	addi	r3,r16,127
 800350c:	00c0210e 	bge	zero,r3,8003594 <__mulsf3+0x3a4>
 8003510:	988001cc 	andi	r2,r19,7
 8003514:	10000426 	beq	r2,zero,8003528 <__mulsf3+0x338>
 8003518:	988003cc 	andi	r2,r19,15
 800351c:	01000104 	movi	r4,4
 8003520:	11000126 	beq	r2,r4,8003528 <__mulsf3+0x338>
 8003524:	9927883a 	add	r19,r19,r4
 8003528:	9882002c 	andhi	r2,r19,2048
 800352c:	10000426 	beq	r2,zero,8003540 <__mulsf3+0x350>
 8003530:	00be0034 	movhi	r2,63488
 8003534:	10bfffc4 	addi	r2,r2,-1
 8003538:	80c02004 	addi	r3,r16,128
 800353c:	98a6703a 	and	r19,r19,r2
 8003540:	00803f84 	movi	r2,254
 8003544:	10ff9c16 	blt	r2,r3,80033b8 <__alt_data_end+0xfc0033b8>
 8003548:	980891ba 	slli	r4,r19,6
 800354c:	a829883a 	mov	r20,r21
 8003550:	2008d27a 	srli	r4,r4,9
 8003554:	003f7906 	br	800333c <__alt_data_end+0xfc00333c>
 8003558:	9080102c 	andhi	r2,r18,64
 800355c:	10000826 	beq	r2,zero,8003580 <__mulsf3+0x390>
 8003560:	9880102c 	andhi	r2,r19,64
 8003564:	1000061e 	bne	r2,zero,8003580 <__mulsf3+0x390>
 8003568:	00802034 	movhi	r2,128
 800356c:	99001034 	orhi	r4,r19,64
 8003570:	10bfffc4 	addi	r2,r2,-1
 8003574:	b029883a 	mov	r20,r22
 8003578:	2088703a 	and	r4,r4,r2
 800357c:	003fad06 	br	8003434 <__alt_data_end+0xfc003434>
 8003580:	00802034 	movhi	r2,128
 8003584:	91001034 	orhi	r4,r18,64
 8003588:	10bfffc4 	addi	r2,r2,-1
 800358c:	2088703a 	and	r4,r4,r2
 8003590:	003fa806 	br	8003434 <__alt_data_end+0xfc003434>
 8003594:	00800044 	movi	r2,1
 8003598:	10c7c83a 	sub	r3,r2,r3
 800359c:	008006c4 	movi	r2,27
 80035a0:	10ff6316 	blt	r2,r3,8003330 <__alt_data_end+0xfc003330>
 80035a4:	00800804 	movi	r2,32
 80035a8:	10c5c83a 	sub	r2,r2,r3
 80035ac:	9884983a 	sll	r2,r19,r2
 80035b0:	98c6d83a 	srl	r3,r19,r3
 80035b4:	1004c03a 	cmpne	r2,r2,zero
 80035b8:	1884b03a 	or	r2,r3,r2
 80035bc:	10c001cc 	andi	r3,r2,7
 80035c0:	18000426 	beq	r3,zero,80035d4 <__mulsf3+0x3e4>
 80035c4:	10c003cc 	andi	r3,r2,15
 80035c8:	01000104 	movi	r4,4
 80035cc:	19000126 	beq	r3,r4,80035d4 <__mulsf3+0x3e4>
 80035d0:	1105883a 	add	r2,r2,r4
 80035d4:	10c1002c 	andhi	r3,r2,1024
 80035d8:	18000626 	beq	r3,zero,80035f4 <__mulsf3+0x404>
 80035dc:	a829883a 	mov	r20,r21
 80035e0:	00c00044 	movi	r3,1
 80035e4:	0009883a 	mov	r4,zero
 80035e8:	003f5406 	br	800333c <__alt_data_end+0xfc00333c>
 80035ec:	3821883a 	mov	r16,r7
 80035f0:	003fc506 	br	8003508 <__alt_data_end+0xfc003508>
 80035f4:	100491ba 	slli	r2,r2,6
 80035f8:	a829883a 	mov	r20,r21
 80035fc:	0007883a 	mov	r3,zero
 8003600:	1008d27a 	srli	r4,r2,9
 8003604:	003f4d06 	br	800333c <__alt_data_end+0xfc00333c>
 8003608:	00802034 	movhi	r2,128
 800360c:	99001034 	orhi	r4,r19,64
 8003610:	10bfffc4 	addi	r2,r2,-1
 8003614:	a829883a 	mov	r20,r21
 8003618:	2088703a 	and	r4,r4,r2
 800361c:	003f8506 	br	8003434 <__alt_data_end+0xfc003434>

08003620 <__subsf3>:
 8003620:	defffc04 	addi	sp,sp,-16
 8003624:	280cd5fa 	srli	r6,r5,23
 8003628:	dc000015 	stw	r16,0(sp)
 800362c:	01c02034 	movhi	r7,128
 8003630:	2020d5fa 	srli	r16,r4,23
 8003634:	39ffffc4 	addi	r7,r7,-1
 8003638:	3906703a 	and	r3,r7,r4
 800363c:	dc400115 	stw	r17,4(sp)
 8003640:	394e703a 	and	r7,r7,r5
 8003644:	2022d7fa 	srli	r17,r4,31
 8003648:	dfc00315 	stw	ra,12(sp)
 800364c:	dc800215 	stw	r18,8(sp)
 8003650:	31803fcc 	andi	r6,r6,255
 8003654:	01003fc4 	movi	r4,255
 8003658:	84003fcc 	andi	r16,r16,255
 800365c:	180690fa 	slli	r3,r3,3
 8003660:	2804d7fa 	srli	r2,r5,31
 8003664:	380e90fa 	slli	r7,r7,3
 8003668:	31006d26 	beq	r6,r4,8003820 <__subsf3+0x200>
 800366c:	1080005c 	xori	r2,r2,1
 8003670:	8189c83a 	sub	r4,r16,r6
 8003674:	14404f26 	beq	r2,r17,80037b4 <__subsf3+0x194>
 8003678:	0100770e 	bge	zero,r4,8003858 <__subsf3+0x238>
 800367c:	30001e1e 	bne	r6,zero,80036f8 <__subsf3+0xd8>
 8003680:	38006a1e 	bne	r7,zero,800382c <__subsf3+0x20c>
 8003684:	188001cc 	andi	r2,r3,7
 8003688:	10000426 	beq	r2,zero,800369c <__subsf3+0x7c>
 800368c:	188003cc 	andi	r2,r3,15
 8003690:	01000104 	movi	r4,4
 8003694:	11000126 	beq	r2,r4,800369c <__subsf3+0x7c>
 8003698:	1907883a 	add	r3,r3,r4
 800369c:	1881002c 	andhi	r2,r3,1024
 80036a0:	10003926 	beq	r2,zero,8003788 <__subsf3+0x168>
 80036a4:	84000044 	addi	r16,r16,1
 80036a8:	00803fc4 	movi	r2,255
 80036ac:	80807526 	beq	r16,r2,8003884 <__subsf3+0x264>
 80036b0:	180691ba 	slli	r3,r3,6
 80036b4:	8880004c 	andi	r2,r17,1
 80036b8:	180ad27a 	srli	r5,r3,9
 80036bc:	84003fcc 	andi	r16,r16,255
 80036c0:	800695fa 	slli	r3,r16,23
 80036c4:	10803fcc 	andi	r2,r2,255
 80036c8:	01002034 	movhi	r4,128
 80036cc:	213fffc4 	addi	r4,r4,-1
 80036d0:	100497fa 	slli	r2,r2,31
 80036d4:	2920703a 	and	r16,r5,r4
 80036d8:	80e0b03a 	or	r16,r16,r3
 80036dc:	8084b03a 	or	r2,r16,r2
 80036e0:	dfc00317 	ldw	ra,12(sp)
 80036e4:	dc800217 	ldw	r18,8(sp)
 80036e8:	dc400117 	ldw	r17,4(sp)
 80036ec:	dc000017 	ldw	r16,0(sp)
 80036f0:	dec00404 	addi	sp,sp,16
 80036f4:	f800283a 	ret
 80036f8:	00803fc4 	movi	r2,255
 80036fc:	80bfe126 	beq	r16,r2,8003684 <__alt_data_end+0xfc003684>
 8003700:	39c10034 	orhi	r7,r7,1024
 8003704:	008006c4 	movi	r2,27
 8003708:	11007416 	blt	r2,r4,80038dc <__subsf3+0x2bc>
 800370c:	00800804 	movi	r2,32
 8003710:	1105c83a 	sub	r2,r2,r4
 8003714:	3884983a 	sll	r2,r7,r2
 8003718:	390ed83a 	srl	r7,r7,r4
 800371c:	1008c03a 	cmpne	r4,r2,zero
 8003720:	390eb03a 	or	r7,r7,r4
 8003724:	19c7c83a 	sub	r3,r3,r7
 8003728:	1881002c 	andhi	r2,r3,1024
 800372c:	10001426 	beq	r2,zero,8003780 <__subsf3+0x160>
 8003730:	04810034 	movhi	r18,1024
 8003734:	94bfffc4 	addi	r18,r18,-1
 8003738:	1ca4703a 	and	r18,r3,r18
 800373c:	9009883a 	mov	r4,r18
 8003740:	8003c640 	call	8003c64 <__clzsi2>
 8003744:	10bffec4 	addi	r2,r2,-5
 8003748:	90a4983a 	sll	r18,r18,r2
 800374c:	14005116 	blt	r2,r16,8003894 <__subsf3+0x274>
 8003750:	1405c83a 	sub	r2,r2,r16
 8003754:	10c00044 	addi	r3,r2,1
 8003758:	00800804 	movi	r2,32
 800375c:	10c5c83a 	sub	r2,r2,r3
 8003760:	9084983a 	sll	r2,r18,r2
 8003764:	90e4d83a 	srl	r18,r18,r3
 8003768:	0021883a 	mov	r16,zero
 800376c:	1006c03a 	cmpne	r3,r2,zero
 8003770:	90c6b03a 	or	r3,r18,r3
 8003774:	003fc306 	br	8003684 <__alt_data_end+0xfc003684>
 8003778:	2000e026 	beq	r4,zero,8003afc <__subsf3+0x4dc>
 800377c:	2007883a 	mov	r3,r4
 8003780:	188001cc 	andi	r2,r3,7
 8003784:	103fc11e 	bne	r2,zero,800368c <__alt_data_end+0xfc00368c>
 8003788:	180ad0fa 	srli	r5,r3,3
 800378c:	00c03fc4 	movi	r3,255
 8003790:	8880004c 	andi	r2,r17,1
 8003794:	80c0031e 	bne	r16,r3,80037a4 <__subsf3+0x184>
 8003798:	28006d26 	beq	r5,zero,8003950 <__subsf3+0x330>
 800379c:	29401034 	orhi	r5,r5,64
 80037a0:	043fffc4 	movi	r16,-1
 80037a4:	00c02034 	movhi	r3,128
 80037a8:	18ffffc4 	addi	r3,r3,-1
 80037ac:	28ca703a 	and	r5,r5,r3
 80037b0:	003fc206 	br	80036bc <__alt_data_end+0xfc0036bc>
 80037b4:	01003c0e 	bge	zero,r4,80038a8 <__subsf3+0x288>
 80037b8:	30002126 	beq	r6,zero,8003840 <__subsf3+0x220>
 80037bc:	01403fc4 	movi	r5,255
 80037c0:	817fb026 	beq	r16,r5,8003684 <__alt_data_end+0xfc003684>
 80037c4:	39c10034 	orhi	r7,r7,1024
 80037c8:	014006c4 	movi	r5,27
 80037cc:	29007416 	blt	r5,r4,80039a0 <__subsf3+0x380>
 80037d0:	01400804 	movi	r5,32
 80037d4:	290bc83a 	sub	r5,r5,r4
 80037d8:	394a983a 	sll	r5,r7,r5
 80037dc:	390ed83a 	srl	r7,r7,r4
 80037e0:	2808c03a 	cmpne	r4,r5,zero
 80037e4:	390eb03a 	or	r7,r7,r4
 80037e8:	19c7883a 	add	r3,r3,r7
 80037ec:	1901002c 	andhi	r4,r3,1024
 80037f0:	20003826 	beq	r4,zero,80038d4 <__subsf3+0x2b4>
 80037f4:	84000044 	addi	r16,r16,1
 80037f8:	01003fc4 	movi	r4,255
 80037fc:	81005426 	beq	r16,r4,8003950 <__subsf3+0x330>
 8003800:	1023883a 	mov	r17,r2
 8003804:	00bf0034 	movhi	r2,64512
 8003808:	10bfffc4 	addi	r2,r2,-1
 800380c:	1900004c 	andi	r4,r3,1
 8003810:	1886703a 	and	r3,r3,r2
 8003814:	1806d07a 	srli	r3,r3,1
 8003818:	1906b03a 	or	r3,r3,r4
 800381c:	003f9906 	br	8003684 <__alt_data_end+0xfc003684>
 8003820:	383f9226 	beq	r7,zero,800366c <__alt_data_end+0xfc00366c>
 8003824:	10803fcc 	andi	r2,r2,255
 8003828:	003f9106 	br	8003670 <__alt_data_end+0xfc003670>
 800382c:	213fffc4 	addi	r4,r4,-1
 8003830:	203fbc26 	beq	r4,zero,8003724 <__alt_data_end+0xfc003724>
 8003834:	00803fc4 	movi	r2,255
 8003838:	80bfb21e 	bne	r16,r2,8003704 <__alt_data_end+0xfc003704>
 800383c:	003f9106 	br	8003684 <__alt_data_end+0xfc003684>
 8003840:	383f9026 	beq	r7,zero,8003684 <__alt_data_end+0xfc003684>
 8003844:	213fffc4 	addi	r4,r4,-1
 8003848:	203fe726 	beq	r4,zero,80037e8 <__alt_data_end+0xfc0037e8>
 800384c:	01403fc4 	movi	r5,255
 8003850:	817fdd1e 	bne	r16,r5,80037c8 <__alt_data_end+0xfc0037c8>
 8003854:	003f8b06 	br	8003684 <__alt_data_end+0xfc003684>
 8003858:	2000221e 	bne	r4,zero,80038e4 <__subsf3+0x2c4>
 800385c:	81000044 	addi	r4,r16,1
 8003860:	21003fcc 	andi	r4,r4,255
 8003864:	01400044 	movi	r5,1
 8003868:	2900470e 	bge	r5,r4,8003988 <__subsf3+0x368>
 800386c:	19e5c83a 	sub	r18,r3,r7
 8003870:	9141002c 	andhi	r5,r18,1024
 8003874:	28002d26 	beq	r5,zero,800392c <__subsf3+0x30c>
 8003878:	38e5c83a 	sub	r18,r7,r3
 800387c:	1023883a 	mov	r17,r2
 8003880:	003fae06 	br	800373c <__alt_data_end+0xfc00373c>
 8003884:	8880004c 	andi	r2,r17,1
 8003888:	043fffc4 	movi	r16,-1
 800388c:	000b883a 	mov	r5,zero
 8003890:	003f8a06 	br	80036bc <__alt_data_end+0xfc0036bc>
 8003894:	00ff0034 	movhi	r3,64512
 8003898:	18ffffc4 	addi	r3,r3,-1
 800389c:	80a1c83a 	sub	r16,r16,r2
 80038a0:	90c6703a 	and	r3,r18,r3
 80038a4:	003f7706 	br	8003684 <__alt_data_end+0xfc003684>
 80038a8:	2000431e 	bne	r4,zero,80039b8 <__subsf3+0x398>
 80038ac:	81000044 	addi	r4,r16,1
 80038b0:	21803fcc 	andi	r6,r4,255
 80038b4:	01400044 	movi	r5,1
 80038b8:	2980280e 	bge	r5,r6,800395c <__subsf3+0x33c>
 80038bc:	01403fc4 	movi	r5,255
 80038c0:	21402326 	beq	r4,r5,8003950 <__subsf3+0x330>
 80038c4:	19c7883a 	add	r3,r3,r7
 80038c8:	1806d07a 	srli	r3,r3,1
 80038cc:	2021883a 	mov	r16,r4
 80038d0:	003f6c06 	br	8003684 <__alt_data_end+0xfc003684>
 80038d4:	1023883a 	mov	r17,r2
 80038d8:	003fa906 	br	8003780 <__alt_data_end+0xfc003780>
 80038dc:	01c00044 	movi	r7,1
 80038e0:	003f9006 	br	8003724 <__alt_data_end+0xfc003724>
 80038e4:	8000151e 	bne	r16,zero,800393c <__subsf3+0x31c>
 80038e8:	18002f26 	beq	r3,zero,80039a8 <__subsf3+0x388>
 80038ec:	0108303a 	nor	r4,zero,r4
 80038f0:	20000a26 	beq	r4,zero,800391c <__subsf3+0x2fc>
 80038f4:	01403fc4 	movi	r5,255
 80038f8:	31402b26 	beq	r6,r5,80039a8 <__subsf3+0x388>
 80038fc:	014006c4 	movi	r5,27
 8003900:	29006e16 	blt	r5,r4,8003abc <__subsf3+0x49c>
 8003904:	01400804 	movi	r5,32
 8003908:	290bc83a 	sub	r5,r5,r4
 800390c:	194a983a 	sll	r5,r3,r5
 8003910:	1908d83a 	srl	r4,r3,r4
 8003914:	2806c03a 	cmpne	r3,r5,zero
 8003918:	20c6b03a 	or	r3,r4,r3
 800391c:	38c7c83a 	sub	r3,r7,r3
 8003920:	3021883a 	mov	r16,r6
 8003924:	1023883a 	mov	r17,r2
 8003928:	003f7f06 	br	8003728 <__alt_data_end+0xfc003728>
 800392c:	903f831e 	bne	r18,zero,800373c <__alt_data_end+0xfc00373c>
 8003930:	0005883a 	mov	r2,zero
 8003934:	0021883a 	mov	r16,zero
 8003938:	003f9a06 	br	80037a4 <__alt_data_end+0xfc0037a4>
 800393c:	01403fc4 	movi	r5,255
 8003940:	31401926 	beq	r6,r5,80039a8 <__subsf3+0x388>
 8003944:	0109c83a 	sub	r4,zero,r4
 8003948:	18c10034 	orhi	r3,r3,1024
 800394c:	003feb06 	br	80038fc <__alt_data_end+0xfc0038fc>
 8003950:	043fffc4 	movi	r16,-1
 8003954:	000b883a 	mov	r5,zero
 8003958:	003f5806 	br	80036bc <__alt_data_end+0xfc0036bc>
 800395c:	8000481e 	bne	r16,zero,8003a80 <__subsf3+0x460>
 8003960:	18006226 	beq	r3,zero,8003aec <__subsf3+0x4cc>
 8003964:	383f4726 	beq	r7,zero,8003684 <__alt_data_end+0xfc003684>
 8003968:	19c7883a 	add	r3,r3,r7
 800396c:	1881002c 	andhi	r2,r3,1024
 8003970:	103f8326 	beq	r2,zero,8003780 <__alt_data_end+0xfc003780>
 8003974:	00bf0034 	movhi	r2,64512
 8003978:	10bfffc4 	addi	r2,r2,-1
 800397c:	2821883a 	mov	r16,r5
 8003980:	1886703a 	and	r3,r3,r2
 8003984:	003f3f06 	br	8003684 <__alt_data_end+0xfc003684>
 8003988:	80001c1e 	bne	r16,zero,80039fc <__subsf3+0x3dc>
 800398c:	1800261e 	bne	r3,zero,8003a28 <__subsf3+0x408>
 8003990:	38004c26 	beq	r7,zero,8003ac4 <__subsf3+0x4a4>
 8003994:	3807883a 	mov	r3,r7
 8003998:	1023883a 	mov	r17,r2
 800399c:	003f3906 	br	8003684 <__alt_data_end+0xfc003684>
 80039a0:	01c00044 	movi	r7,1
 80039a4:	003f9006 	br	80037e8 <__alt_data_end+0xfc0037e8>
 80039a8:	3807883a 	mov	r3,r7
 80039ac:	3021883a 	mov	r16,r6
 80039b0:	1023883a 	mov	r17,r2
 80039b4:	003f3306 	br	8003684 <__alt_data_end+0xfc003684>
 80039b8:	8000161e 	bne	r16,zero,8003a14 <__subsf3+0x3f4>
 80039bc:	18002d26 	beq	r3,zero,8003a74 <__subsf3+0x454>
 80039c0:	0108303a 	nor	r4,zero,r4
 80039c4:	20000a26 	beq	r4,zero,80039f0 <__subsf3+0x3d0>
 80039c8:	01403fc4 	movi	r5,255
 80039cc:	31402926 	beq	r6,r5,8003a74 <__subsf3+0x454>
 80039d0:	014006c4 	movi	r5,27
 80039d4:	29004716 	blt	r5,r4,8003af4 <__subsf3+0x4d4>
 80039d8:	01400804 	movi	r5,32
 80039dc:	290bc83a 	sub	r5,r5,r4
 80039e0:	194a983a 	sll	r5,r3,r5
 80039e4:	1908d83a 	srl	r4,r3,r4
 80039e8:	2806c03a 	cmpne	r3,r5,zero
 80039ec:	20c6b03a 	or	r3,r4,r3
 80039f0:	19c7883a 	add	r3,r3,r7
 80039f4:	3021883a 	mov	r16,r6
 80039f8:	003f7c06 	br	80037ec <__alt_data_end+0xfc0037ec>
 80039fc:	1800111e 	bne	r3,zero,8003a44 <__subsf3+0x424>
 8003a00:	38003326 	beq	r7,zero,8003ad0 <__subsf3+0x4b0>
 8003a04:	3807883a 	mov	r3,r7
 8003a08:	1023883a 	mov	r17,r2
 8003a0c:	04003fc4 	movi	r16,255
 8003a10:	003f1c06 	br	8003684 <__alt_data_end+0xfc003684>
 8003a14:	01403fc4 	movi	r5,255
 8003a18:	31401626 	beq	r6,r5,8003a74 <__subsf3+0x454>
 8003a1c:	0109c83a 	sub	r4,zero,r4
 8003a20:	18c10034 	orhi	r3,r3,1024
 8003a24:	003fea06 	br	80039d0 <__alt_data_end+0xfc0039d0>
 8003a28:	383f1626 	beq	r7,zero,8003684 <__alt_data_end+0xfc003684>
 8003a2c:	19c9c83a 	sub	r4,r3,r7
 8003a30:	2141002c 	andhi	r5,r4,1024
 8003a34:	283f5026 	beq	r5,zero,8003778 <__alt_data_end+0xfc003778>
 8003a38:	38c7c83a 	sub	r3,r7,r3
 8003a3c:	1023883a 	mov	r17,r2
 8003a40:	003f1006 	br	8003684 <__alt_data_end+0xfc003684>
 8003a44:	38001b26 	beq	r7,zero,8003ab4 <__subsf3+0x494>
 8003a48:	1806d0fa 	srli	r3,r3,3
 8003a4c:	1900102c 	andhi	r4,r3,64
 8003a50:	20000526 	beq	r4,zero,8003a68 <__subsf3+0x448>
 8003a54:	380ed0fa 	srli	r7,r7,3
 8003a58:	3900102c 	andhi	r4,r7,64
 8003a5c:	2000021e 	bne	r4,zero,8003a68 <__subsf3+0x448>
 8003a60:	3807883a 	mov	r3,r7
 8003a64:	1023883a 	mov	r17,r2
 8003a68:	180690fa 	slli	r3,r3,3
 8003a6c:	04003fc4 	movi	r16,255
 8003a70:	003f0406 	br	8003684 <__alt_data_end+0xfc003684>
 8003a74:	3807883a 	mov	r3,r7
 8003a78:	3021883a 	mov	r16,r6
 8003a7c:	003f0106 	br	8003684 <__alt_data_end+0xfc003684>
 8003a80:	18001726 	beq	r3,zero,8003ae0 <__subsf3+0x4c0>
 8003a84:	38000b26 	beq	r7,zero,8003ab4 <__subsf3+0x494>
 8003a88:	1806d0fa 	srli	r3,r3,3
 8003a8c:	1900102c 	andhi	r4,r3,64
 8003a90:	20000426 	beq	r4,zero,8003aa4 <__subsf3+0x484>
 8003a94:	380ed0fa 	srli	r7,r7,3
 8003a98:	3900102c 	andhi	r4,r7,64
 8003a9c:	2000011e 	bne	r4,zero,8003aa4 <__subsf3+0x484>
 8003aa0:	3807883a 	mov	r3,r7
 8003aa4:	180690fa 	slli	r3,r3,3
 8003aa8:	1023883a 	mov	r17,r2
 8003aac:	04003fc4 	movi	r16,255
 8003ab0:	003ef406 	br	8003684 <__alt_data_end+0xfc003684>
 8003ab4:	04003fc4 	movi	r16,255
 8003ab8:	003ef206 	br	8003684 <__alt_data_end+0xfc003684>
 8003abc:	00c00044 	movi	r3,1
 8003ac0:	003f9606 	br	800391c <__alt_data_end+0xfc00391c>
 8003ac4:	000b883a 	mov	r5,zero
 8003ac8:	0005883a 	mov	r2,zero
 8003acc:	003f3506 	br	80037a4 <__alt_data_end+0xfc0037a4>
 8003ad0:	01402034 	movhi	r5,128
 8003ad4:	297fffc4 	addi	r5,r5,-1
 8003ad8:	0005883a 	mov	r2,zero
 8003adc:	003f2f06 	br	800379c <__alt_data_end+0xfc00379c>
 8003ae0:	3807883a 	mov	r3,r7
 8003ae4:	04003fc4 	movi	r16,255
 8003ae8:	003ee606 	br	8003684 <__alt_data_end+0xfc003684>
 8003aec:	3807883a 	mov	r3,r7
 8003af0:	003ee406 	br	8003684 <__alt_data_end+0xfc003684>
 8003af4:	00c00044 	movi	r3,1
 8003af8:	003fbd06 	br	80039f0 <__alt_data_end+0xfc0039f0>
 8003afc:	0005883a 	mov	r2,zero
 8003b00:	003f2806 	br	80037a4 <__alt_data_end+0xfc0037a4>

08003b04 <__fixsfsi>:
 8003b04:	200ad5fa 	srli	r5,r4,23
 8003b08:	00c02034 	movhi	r3,128
 8003b0c:	18ffffc4 	addi	r3,r3,-1
 8003b10:	29403fcc 	andi	r5,r5,255
 8003b14:	00801f84 	movi	r2,126
 8003b18:	1906703a 	and	r3,r3,r4
 8003b1c:	2008d7fa 	srli	r4,r4,31
 8003b20:	11400e0e 	bge	r2,r5,8003b5c <__fixsfsi+0x58>
 8003b24:	00802744 	movi	r2,157
 8003b28:	11400816 	blt	r2,r5,8003b4c <__fixsfsi+0x48>
 8003b2c:	00802544 	movi	r2,149
 8003b30:	18c02034 	orhi	r3,r3,128
 8003b34:	11400b0e 	bge	r2,r5,8003b64 <__fixsfsi+0x60>
 8003b38:	28bfda84 	addi	r2,r5,-150
 8003b3c:	1884983a 	sll	r2,r3,r2
 8003b40:	20000726 	beq	r4,zero,8003b60 <__fixsfsi+0x5c>
 8003b44:	0085c83a 	sub	r2,zero,r2
 8003b48:	f800283a 	ret
 8003b4c:	00a00034 	movhi	r2,32768
 8003b50:	10bfffc4 	addi	r2,r2,-1
 8003b54:	2085883a 	add	r2,r4,r2
 8003b58:	f800283a 	ret
 8003b5c:	0005883a 	mov	r2,zero
 8003b60:	f800283a 	ret
 8003b64:	00802584 	movi	r2,150
 8003b68:	1145c83a 	sub	r2,r2,r5
 8003b6c:	1884d83a 	srl	r2,r3,r2
 8003b70:	003ff306 	br	8003b40 <__alt_data_end+0xfc003b40>

08003b74 <__floatunsisf>:
 8003b74:	defffe04 	addi	sp,sp,-8
 8003b78:	dfc00115 	stw	ra,4(sp)
 8003b7c:	dc000015 	stw	r16,0(sp)
 8003b80:	20002c26 	beq	r4,zero,8003c34 <__floatunsisf+0xc0>
 8003b84:	2021883a 	mov	r16,r4
 8003b88:	8003c640 	call	8003c64 <__clzsi2>
 8003b8c:	00c02784 	movi	r3,158
 8003b90:	1887c83a 	sub	r3,r3,r2
 8003b94:	01002584 	movi	r4,150
 8003b98:	20c00f16 	blt	r4,r3,8003bd8 <__floatunsisf+0x64>
 8003b9c:	20c9c83a 	sub	r4,r4,r3
 8003ba0:	8108983a 	sll	r4,r16,r4
 8003ba4:	00802034 	movhi	r2,128
 8003ba8:	10bfffc4 	addi	r2,r2,-1
 8003bac:	2088703a 	and	r4,r4,r2
 8003bb0:	18803fcc 	andi	r2,r3,255
 8003bb4:	100695fa 	slli	r3,r2,23
 8003bb8:	00802034 	movhi	r2,128
 8003bbc:	10bfffc4 	addi	r2,r2,-1
 8003bc0:	2084703a 	and	r2,r4,r2
 8003bc4:	10c4b03a 	or	r2,r2,r3
 8003bc8:	dfc00117 	ldw	ra,4(sp)
 8003bcc:	dc000017 	ldw	r16,0(sp)
 8003bd0:	dec00204 	addi	sp,sp,8
 8003bd4:	f800283a 	ret
 8003bd8:	01002644 	movi	r4,153
 8003bdc:	20c01816 	blt	r4,r3,8003c40 <__floatunsisf+0xcc>
 8003be0:	20c9c83a 	sub	r4,r4,r3
 8003be4:	8108983a 	sll	r4,r16,r4
 8003be8:	017f0034 	movhi	r5,64512
 8003bec:	297fffc4 	addi	r5,r5,-1
 8003bf0:	218001cc 	andi	r6,r4,7
 8003bf4:	214a703a 	and	r5,r4,r5
 8003bf8:	30000426 	beq	r6,zero,8003c0c <__floatunsisf+0x98>
 8003bfc:	210003cc 	andi	r4,r4,15
 8003c00:	01800104 	movi	r6,4
 8003c04:	21800126 	beq	r4,r6,8003c0c <__floatunsisf+0x98>
 8003c08:	298b883a 	add	r5,r5,r6
 8003c0c:	2901002c 	andhi	r4,r5,1024
 8003c10:	20000526 	beq	r4,zero,8003c28 <__floatunsisf+0xb4>
 8003c14:	00c027c4 	movi	r3,159
 8003c18:	1887c83a 	sub	r3,r3,r2
 8003c1c:	00bf0034 	movhi	r2,64512
 8003c20:	10bfffc4 	addi	r2,r2,-1
 8003c24:	288a703a 	and	r5,r5,r2
 8003c28:	280891ba 	slli	r4,r5,6
 8003c2c:	2008d27a 	srli	r4,r4,9
 8003c30:	003fdf06 	br	8003bb0 <__alt_data_end+0xfc003bb0>
 8003c34:	0007883a 	mov	r3,zero
 8003c38:	0009883a 	mov	r4,zero
 8003c3c:	003fdc06 	br	8003bb0 <__alt_data_end+0xfc003bb0>
 8003c40:	01402e44 	movi	r5,185
 8003c44:	28cbc83a 	sub	r5,r5,r3
 8003c48:	01000144 	movi	r4,5
 8003c4c:	2089c83a 	sub	r4,r4,r2
 8003c50:	814a983a 	sll	r5,r16,r5
 8003c54:	8108d83a 	srl	r4,r16,r4
 8003c58:	2820c03a 	cmpne	r16,r5,zero
 8003c5c:	2408b03a 	or	r4,r4,r16
 8003c60:	003fe106 	br	8003be8 <__alt_data_end+0xfc003be8>

08003c64 <__clzsi2>:
 8003c64:	00bfffd4 	movui	r2,65535
 8003c68:	11000536 	bltu	r2,r4,8003c80 <__clzsi2+0x1c>
 8003c6c:	00803fc4 	movi	r2,255
 8003c70:	11000f36 	bltu	r2,r4,8003cb0 <__clzsi2+0x4c>
 8003c74:	00800804 	movi	r2,32
 8003c78:	0007883a 	mov	r3,zero
 8003c7c:	00000506 	br	8003c94 <__clzsi2+0x30>
 8003c80:	00804034 	movhi	r2,256
 8003c84:	10bfffc4 	addi	r2,r2,-1
 8003c88:	11000c2e 	bgeu	r2,r4,8003cbc <__clzsi2+0x58>
 8003c8c:	00800204 	movi	r2,8
 8003c90:	00c00604 	movi	r3,24
 8003c94:	20c8d83a 	srl	r4,r4,r3
 8003c98:	00c20074 	movhi	r3,2049
 8003c9c:	18d64704 	addi	r3,r3,22812
 8003ca0:	1909883a 	add	r4,r3,r4
 8003ca4:	20c00003 	ldbu	r3,0(r4)
 8003ca8:	10c5c83a 	sub	r2,r2,r3
 8003cac:	f800283a 	ret
 8003cb0:	00800604 	movi	r2,24
 8003cb4:	00c00204 	movi	r3,8
 8003cb8:	003ff606 	br	8003c94 <__alt_data_end+0xfc003c94>
 8003cbc:	00800404 	movi	r2,16
 8003cc0:	1007883a 	mov	r3,r2
 8003cc4:	003ff306 	br	8003c94 <__alt_data_end+0xfc003c94>

08003cc8 <_printf_r>:
 8003cc8:	defffd04 	addi	sp,sp,-12
 8003ccc:	2805883a 	mov	r2,r5
 8003cd0:	dfc00015 	stw	ra,0(sp)
 8003cd4:	d9800115 	stw	r6,4(sp)
 8003cd8:	d9c00215 	stw	r7,8(sp)
 8003cdc:	21400217 	ldw	r5,8(r4)
 8003ce0:	d9c00104 	addi	r7,sp,4
 8003ce4:	100d883a 	mov	r6,r2
 8003ce8:	8003ec00 	call	8003ec0 <___vfprintf_internal_r>
 8003cec:	dfc00017 	ldw	ra,0(sp)
 8003cf0:	dec00304 	addi	sp,sp,12
 8003cf4:	f800283a 	ret

08003cf8 <printf>:
 8003cf8:	defffc04 	addi	sp,sp,-16
 8003cfc:	dfc00015 	stw	ra,0(sp)
 8003d00:	d9400115 	stw	r5,4(sp)
 8003d04:	d9800215 	stw	r6,8(sp)
 8003d08:	d9c00315 	stw	r7,12(sp)
 8003d0c:	00820074 	movhi	r2,2049
 8003d10:	109ddc04 	addi	r2,r2,30576
 8003d14:	10800017 	ldw	r2,0(r2)
 8003d18:	200b883a 	mov	r5,r4
 8003d1c:	d9800104 	addi	r6,sp,4
 8003d20:	11000217 	ldw	r4,8(r2)
 8003d24:	800619c0 	call	800619c <__vfprintf_internal>
 8003d28:	dfc00017 	ldw	ra,0(sp)
 8003d2c:	dec00404 	addi	sp,sp,16
 8003d30:	f800283a 	ret

08003d34 <_putchar_r>:
 8003d34:	21800217 	ldw	r6,8(r4)
 8003d38:	800ad601 	jmpi	800ad60 <_putc_r>

08003d3c <putchar>:
 8003d3c:	00820074 	movhi	r2,2049
 8003d40:	109ddc04 	addi	r2,r2,30576
 8003d44:	200b883a 	mov	r5,r4
 8003d48:	11000017 	ldw	r4,0(r2)
 8003d4c:	21800217 	ldw	r6,8(r4)
 8003d50:	800ad601 	jmpi	800ad60 <_putc_r>

08003d54 <_puts_r>:
 8003d54:	defff604 	addi	sp,sp,-40
 8003d58:	dc000715 	stw	r16,28(sp)
 8003d5c:	2021883a 	mov	r16,r4
 8003d60:	2809883a 	mov	r4,r5
 8003d64:	dc400815 	stw	r17,32(sp)
 8003d68:	dfc00915 	stw	ra,36(sp)
 8003d6c:	2823883a 	mov	r17,r5
 8003d70:	8003e280 	call	8003e28 <strlen>
 8003d74:	10c00044 	addi	r3,r2,1
 8003d78:	d8800115 	stw	r2,4(sp)
 8003d7c:	00820074 	movhi	r2,2049
 8003d80:	10968704 	addi	r2,r2,23068
 8003d84:	d8800215 	stw	r2,8(sp)
 8003d88:	00800044 	movi	r2,1
 8003d8c:	d8800315 	stw	r2,12(sp)
 8003d90:	00800084 	movi	r2,2
 8003d94:	dc400015 	stw	r17,0(sp)
 8003d98:	d8c00615 	stw	r3,24(sp)
 8003d9c:	dec00415 	stw	sp,16(sp)
 8003da0:	d8800515 	stw	r2,20(sp)
 8003da4:	80000226 	beq	r16,zero,8003db0 <_puts_r+0x5c>
 8003da8:	80800e17 	ldw	r2,56(r16)
 8003dac:	10001426 	beq	r2,zero,8003e00 <_puts_r+0xac>
 8003db0:	81400217 	ldw	r5,8(r16)
 8003db4:	2880030b 	ldhu	r2,12(r5)
 8003db8:	10c8000c 	andi	r3,r2,8192
 8003dbc:	1800061e 	bne	r3,zero,8003dd8 <_puts_r+0x84>
 8003dc0:	29001917 	ldw	r4,100(r5)
 8003dc4:	00f7ffc4 	movi	r3,-8193
 8003dc8:	10880014 	ori	r2,r2,8192
 8003dcc:	20c6703a 	and	r3,r4,r3
 8003dd0:	2880030d 	sth	r2,12(r5)
 8003dd4:	28c01915 	stw	r3,100(r5)
 8003dd8:	d9800404 	addi	r6,sp,16
 8003ddc:	8009883a 	mov	r4,r16
 8003de0:	80087040 	call	8008704 <__sfvwrite_r>
 8003de4:	1000091e 	bne	r2,zero,8003e0c <_puts_r+0xb8>
 8003de8:	00800284 	movi	r2,10
 8003dec:	dfc00917 	ldw	ra,36(sp)
 8003df0:	dc400817 	ldw	r17,32(sp)
 8003df4:	dc000717 	ldw	r16,28(sp)
 8003df8:	dec00a04 	addi	sp,sp,40
 8003dfc:	f800283a 	ret
 8003e00:	8009883a 	mov	r4,r16
 8003e04:	80082800 	call	8008280 <__sinit>
 8003e08:	003fe906 	br	8003db0 <__alt_data_end+0xfc003db0>
 8003e0c:	00bfffc4 	movi	r2,-1
 8003e10:	003ff606 	br	8003dec <__alt_data_end+0xfc003dec>

08003e14 <puts>:
 8003e14:	00820074 	movhi	r2,2049
 8003e18:	109ddc04 	addi	r2,r2,30576
 8003e1c:	200b883a 	mov	r5,r4
 8003e20:	11000017 	ldw	r4,0(r2)
 8003e24:	8003d541 	jmpi	8003d54 <_puts_r>

08003e28 <strlen>:
 8003e28:	208000cc 	andi	r2,r4,3
 8003e2c:	10002026 	beq	r2,zero,8003eb0 <strlen+0x88>
 8003e30:	20800007 	ldb	r2,0(r4)
 8003e34:	10002026 	beq	r2,zero,8003eb8 <strlen+0x90>
 8003e38:	2005883a 	mov	r2,r4
 8003e3c:	00000206 	br	8003e48 <strlen+0x20>
 8003e40:	10c00007 	ldb	r3,0(r2)
 8003e44:	18001826 	beq	r3,zero,8003ea8 <strlen+0x80>
 8003e48:	10800044 	addi	r2,r2,1
 8003e4c:	10c000cc 	andi	r3,r2,3
 8003e50:	183ffb1e 	bne	r3,zero,8003e40 <__alt_data_end+0xfc003e40>
 8003e54:	10c00017 	ldw	r3,0(r2)
 8003e58:	01ffbff4 	movhi	r7,65279
 8003e5c:	39ffbfc4 	addi	r7,r7,-257
 8003e60:	00ca303a 	nor	r5,zero,r3
 8003e64:	01a02074 	movhi	r6,32897
 8003e68:	19c7883a 	add	r3,r3,r7
 8003e6c:	31a02004 	addi	r6,r6,-32640
 8003e70:	1946703a 	and	r3,r3,r5
 8003e74:	1986703a 	and	r3,r3,r6
 8003e78:	1800091e 	bne	r3,zero,8003ea0 <strlen+0x78>
 8003e7c:	10800104 	addi	r2,r2,4
 8003e80:	10c00017 	ldw	r3,0(r2)
 8003e84:	19cb883a 	add	r5,r3,r7
 8003e88:	00c6303a 	nor	r3,zero,r3
 8003e8c:	28c6703a 	and	r3,r5,r3
 8003e90:	1986703a 	and	r3,r3,r6
 8003e94:	183ff926 	beq	r3,zero,8003e7c <__alt_data_end+0xfc003e7c>
 8003e98:	00000106 	br	8003ea0 <strlen+0x78>
 8003e9c:	10800044 	addi	r2,r2,1
 8003ea0:	10c00007 	ldb	r3,0(r2)
 8003ea4:	183ffd1e 	bne	r3,zero,8003e9c <__alt_data_end+0xfc003e9c>
 8003ea8:	1105c83a 	sub	r2,r2,r4
 8003eac:	f800283a 	ret
 8003eb0:	2005883a 	mov	r2,r4
 8003eb4:	003fe706 	br	8003e54 <__alt_data_end+0xfc003e54>
 8003eb8:	0005883a 	mov	r2,zero
 8003ebc:	f800283a 	ret

08003ec0 <___vfprintf_internal_r>:
 8003ec0:	deffb804 	addi	sp,sp,-288
 8003ec4:	dfc04715 	stw	ra,284(sp)
 8003ec8:	ddc04515 	stw	r23,276(sp)
 8003ecc:	dd404315 	stw	r21,268(sp)
 8003ed0:	d9002d15 	stw	r4,180(sp)
 8003ed4:	282f883a 	mov	r23,r5
 8003ed8:	302b883a 	mov	r21,r6
 8003edc:	d9c02e15 	stw	r7,184(sp)
 8003ee0:	df004615 	stw	fp,280(sp)
 8003ee4:	dd804415 	stw	r22,272(sp)
 8003ee8:	dd004215 	stw	r20,264(sp)
 8003eec:	dcc04115 	stw	r19,260(sp)
 8003ef0:	dc804015 	stw	r18,256(sp)
 8003ef4:	dc403f15 	stw	r17,252(sp)
 8003ef8:	dc003e15 	stw	r16,248(sp)
 8003efc:	8008e000 	call	8008e00 <_localeconv_r>
 8003f00:	10800017 	ldw	r2,0(r2)
 8003f04:	1009883a 	mov	r4,r2
 8003f08:	d8803415 	stw	r2,208(sp)
 8003f0c:	8003e280 	call	8003e28 <strlen>
 8003f10:	d8803715 	stw	r2,220(sp)
 8003f14:	d8802d17 	ldw	r2,180(sp)
 8003f18:	10000226 	beq	r2,zero,8003f24 <___vfprintf_internal_r+0x64>
 8003f1c:	10800e17 	ldw	r2,56(r2)
 8003f20:	1000fb26 	beq	r2,zero,8004310 <___vfprintf_internal_r+0x450>
 8003f24:	b880030b 	ldhu	r2,12(r23)
 8003f28:	10c8000c 	andi	r3,r2,8192
 8003f2c:	1800061e 	bne	r3,zero,8003f48 <___vfprintf_internal_r+0x88>
 8003f30:	b9001917 	ldw	r4,100(r23)
 8003f34:	00f7ffc4 	movi	r3,-8193
 8003f38:	10880014 	ori	r2,r2,8192
 8003f3c:	20c6703a 	and	r3,r4,r3
 8003f40:	b880030d 	sth	r2,12(r23)
 8003f44:	b8c01915 	stw	r3,100(r23)
 8003f48:	10c0020c 	andi	r3,r2,8
 8003f4c:	1800c326 	beq	r3,zero,800425c <___vfprintf_internal_r+0x39c>
 8003f50:	b8c00417 	ldw	r3,16(r23)
 8003f54:	1800c126 	beq	r3,zero,800425c <___vfprintf_internal_r+0x39c>
 8003f58:	1080068c 	andi	r2,r2,26
 8003f5c:	00c00284 	movi	r3,10
 8003f60:	10c0c626 	beq	r2,r3,800427c <___vfprintf_internal_r+0x3bc>
 8003f64:	d8c00404 	addi	r3,sp,16
 8003f68:	05020074 	movhi	r20,2049
 8003f6c:	d9001e04 	addi	r4,sp,120
 8003f70:	a5169884 	addi	r20,r20,23138
 8003f74:	d8c01e15 	stw	r3,120(sp)
 8003f78:	d8002015 	stw	zero,128(sp)
 8003f7c:	d8001f15 	stw	zero,124(sp)
 8003f80:	d8003315 	stw	zero,204(sp)
 8003f84:	d8003615 	stw	zero,216(sp)
 8003f88:	d8003815 	stw	zero,224(sp)
 8003f8c:	1811883a 	mov	r8,r3
 8003f90:	d8003915 	stw	zero,228(sp)
 8003f94:	d8003a15 	stw	zero,232(sp)
 8003f98:	d8002f15 	stw	zero,188(sp)
 8003f9c:	d9002815 	stw	r4,160(sp)
 8003fa0:	a8800007 	ldb	r2,0(r21)
 8003fa4:	10028b26 	beq	r2,zero,80049d4 <___vfprintf_internal_r+0xb14>
 8003fa8:	00c00944 	movi	r3,37
 8003fac:	a823883a 	mov	r17,r21
 8003fb0:	10c0021e 	bne	r2,r3,8003fbc <___vfprintf_internal_r+0xfc>
 8003fb4:	00001406 	br	8004008 <___vfprintf_internal_r+0x148>
 8003fb8:	10c00326 	beq	r2,r3,8003fc8 <___vfprintf_internal_r+0x108>
 8003fbc:	8c400044 	addi	r17,r17,1
 8003fc0:	88800007 	ldb	r2,0(r17)
 8003fc4:	103ffc1e 	bne	r2,zero,8003fb8 <__alt_data_end+0xfc003fb8>
 8003fc8:	8d61c83a 	sub	r16,r17,r21
 8003fcc:	80000e26 	beq	r16,zero,8004008 <___vfprintf_internal_r+0x148>
 8003fd0:	d8c02017 	ldw	r3,128(sp)
 8003fd4:	d8801f17 	ldw	r2,124(sp)
 8003fd8:	45400015 	stw	r21,0(r8)
 8003fdc:	1c07883a 	add	r3,r3,r16
 8003fe0:	10800044 	addi	r2,r2,1
 8003fe4:	d8c02015 	stw	r3,128(sp)
 8003fe8:	44000115 	stw	r16,4(r8)
 8003fec:	d8801f15 	stw	r2,124(sp)
 8003ff0:	00c001c4 	movi	r3,7
 8003ff4:	1880a916 	blt	r3,r2,800429c <___vfprintf_internal_r+0x3dc>
 8003ff8:	42000204 	addi	r8,r8,8
 8003ffc:	d9402f17 	ldw	r5,188(sp)
 8004000:	2c0b883a 	add	r5,r5,r16
